(dp0
I0
F44848.4559635818
sI1
F45586.27987340093
sI2
F43439.86693269014
sI3
F44848.4559635818
sI4
F45586.27987340093
sI5
F43439.86693269014
sI6
F44848.4559635818
sI7
F45586.27987340093
sI8
F43439.86693269014
sI9
F44848.4559635818
sI10
F43701.05412143469
sI11
F43766.652277082205
sI12
F46674.938395679
sI13
F44356.22872519493
sI14
F44067.82794383168
sI15
F44608.84567716718
sI16
F45589.134719878435
sI17
F43909.14443820715
sI18
F44325.914226561785
sI19
F43441.81960052252
sI20
F47317.865910470486
sI21
F43888.233871251345
sI22
F43849.59985110164
sI23
F53607.15906608105
sI24
F43645.08116021752
sI25
F43996.606307923794
sI26
F43688.9808152616
sI27
F53245.67684221268
sI28
F44257.260407716036
sI29
F40439.08298483491
sI30
F44178.45519375801
sI31
F44503.43223720789
sI32
F43159.222643226385
sI33
F44486.34342586994
sI34
F51389.994840323925
sI35
F48823.55143547058
sI36
F43984.59455510974
sI37
F48387.5706705749
sI38
F44490.86763879657
sI39
F43154.18769156933
sI40
F44676.63887116313
sI41
F45363.87501594424
sI42
F43752.343255251646
sI43
F44212.12734082341
sI44
F44230.74045431614
sI45
F42746.91206395626
sI46
F44381.18381795287
sI47
F44622.95217382908
sI48
F43177.30825218558
sI49
F44755.363739818335
sI50
F44266.32027888298
sI51
F44227.38130533695
sI52
F43931.85167270899
sI53
F44676.86573037505
sI54
F43783.19675272703
sI55
F47950.77607142925
sI56
F42417.2823895514
sI57
F43773.20641094446
sI58
F45087.862861424685
sI59
F51547.66161650419
sI60
F43426.71733605862
sI61
F43712.95135957003
sI62
F44529.25541552901
sI63
F58379.07943612337
sI64
F43838.76427125931
sI65
F56099.06328457594
sI66
F44681.14415562153
sI67
F49920.25227415562
sI68
F44811.67836776376
sI69
F45394.41728243232
sI70
F44239.08683767915
sI71
F43514.36171630025
sI72
F44606.08570945263
sI73
F43976.08512017131
sI74
F44841.32236865163
sI75
F44111.81765791774
sI76
F49747.941476881504
sI77
F47138.05404138565
sI78
F43682.461947113276
sI79
F45116.443328768015
sI80
F44447.75989180803
sI81
F44353.96372613311
sI82
F44354.4993930459
sI83
F47428.32509624958
sI84
F43313.95099121332
sI85
F44996.65309584141
sI86
F38971.457685530186
sI87
F44599.85564631224
sI88
F43279.863105893135
sI89
F44070.41658735275
sI90
F44198.16888511181
sI91
F45131.473770320415
sI92
F45334.41411188245
sI93
F43737.30351665616
sI94
F43823.72359034419
sI95
F45788.544556081295
sI96
F43429.5260784626
sI97
F37679.959761321545
sI98
F44498.80472972989
sI99
F40172.87757605314
sI100
F44080.81768926978
sI101
F43747.89733028412
sI102
F43487.92845156789
sI103
F43620.426686644554
sI104
F44628.521123856306
sI105
F43542.697335511446
sI106
F44069.865421801805
sI107
F42345.36928296089
sI108
F43444.770808666945
sI109
F43821.65868425369
sI110
F48835.821688205004
sI111
F47608.65642142296
sI112
F47702.00857284665
sI113
F50825.45434600115
sI114
F48300.13392487168
sI115
F48028.5339512825
sI116
F48622.987558573484
sI117
F49615.55302372575
sI118
F47857.943345457315
sI119
F48254.663533747196
sI120
F47376.48496443033
sI121
F51573.33576989174
sI122
F47820.626323878765
sI123
F47745.77448359132
sI124
F58419.933554947376
sI125
F47516.6319822371
sI126
F47947.737696796656
sI127
F47542.837126255035
sI128
F58002.349320709705
sI129
F48168.88408121467
sI130
F43940.498315155506
sI131
F48090.17512843013
sI132
F48474.05112302303
sI133
F46992.95280635357
sI134
F48488.660251140594
sI135
F55965.125842392445
sI136
F53190.80751436949
sI137
F47892.65675443411
sI138
F52697.810598254204
sI139
F48455.381485044956
sI140
F46974.00597205758
sI141
F48636.143470704556
sI142
F49370.04429420829
sI143
F47619.3477101028
sI144
F48192.12180933356
sI145
F48183.198649287224
sI146
F46544.42233940959
sI147
F48366.907244205475
sI148
F48633.87520995736
sI149
F46980.18784034252
sI150
F48741.73860785365
sI151
F48234.135292977095
sI152
F48150.73435354233
sI153
F47829.46848025918
sI154
F48660.4078553319
sI155
F47635.91382473707
sI156
F52208.42176455259
sI157
F46184.70142766833
sI158
F47643.510924726725
sI159
F49160.74404042959
sI160
F56139.99089050293
sI161
F47272.86900725961
sI162
F47619.577675014734
sI163
F48490.02168816328
sI164
F63612.81937003136
sI165
F47730.49113050103
sI166
F61118.69989448786
sI167
F48691.88844951987
sI168
F54418.39152300358
sI169
F48813.594634354115
sI170
F49451.71132710576
sI171
F48157.05445677042
sI172
F47350.622259795666
sI173
F48548.76647159457
sI174
F47877.16486790776
sI175
F48840.874662190676
sI176
F48030.59637624025
sI177
F54092.000235557556
sI178
F51351.99088984728
sI179
F47537.170442938805
sI180
F49161.76145234704
sI181
F48391.469256699085
sI182
F48254.635702461004
sI183
F48289.154745817184
sI184
F51723.019783735275
sI185
F47149.29973915219
sI186
F48977.80408889055
sI187
F42354.19861719012
sI188
F48615.45445552468
sI189
F47104.34813156724
sI190
F47992.94713175297
sI191
F48109.95435643196
sI192
F49161.07462334633
sI193
F49391.829387426376
sI194
F47616.16514548659
sI195
F47692.84615910053
sI196
F49872.281549721956
sI197
F47226.93906053901
sI198
F40829.95526945591
sI199
F48478.51074269414
sI200
F43643.60689032078
sI201
F48031.95549786091
sI202
F47646.03824773431
sI203
F47364.888764590025
sI204
F47460.82794177532
sI205
F48637.053693562746
sI206
F47389.12152892351
sI207
F48008.60961622
sI208
F46038.709885418415
sI209
F47279.5228279829
sI210
F47720.59690019488
sI211
F48862.4690579474
sI212
F43828.73078715801
sI213
F43275.140397042036
sI214
F44049.53443479538
sI215
F43328.799054294825
sI216
F43701.27198776603
sI217
F46240.723214656115
sI218
F43110.63568776846
sI219
F43352.58713826537
sI220
F44280.66478282213
sI221
F44254.46206396818
sI222
F42475.042054355145
sI223
F42690.01599511504
sI224
F43790.98502498865
sI225
F44703.2191722393
sI226
F43749.33803996444
sI227
F43270.367156624794
sI228
F43158.15281918645
sI229
F42959.58917951584
sI230
F44257.489131093025
sI231
F44506.21520367265
sI232
F46802.108666956425
sI233
F42871.98747894168
sI234
F43902.892583698034
sI235
F46116.7219171226
sI236
F42012.25239801407
sI237
F44138.37247544527
sI238
F43779.872106164694
sI239
F44722.222540706396
sI240
F43757.051317721605
sI241
F44917.600524544716
sI242
F44763.85577329993
sI243
F43408.30132713914
sI244
F42370.34852600098
sI245
F43772.33750632405
sI246
F43159.84580510855
sI247
F43035.0590287447
sI248
F43832.04631194472
sI249
F44555.10435318947
sI250
F43224.070758372545
sI251
F44826.030094116926
sI252
F44612.95968037844
sI253
F43251.4248149991
sI254
F43593.11800199747
sI255
F43158.4270786047
sI256
F43664.47053870559
sI257
F43871.88030427694
sI258
F44822.36138358712
sI259
F43091.138384491205
sI260
F43325.606506586075
sI261
F43850.20625525713
sI262
F43615.65808689594
sI263
F44641.054040163755
sI264
F44053.63037571311
sI265
F42881.591378480196
sI266
F42920.33284595609
sI267
F43946.08770224452
sI268
F44887.09370148182
sI269
F42644.710962444544
sI270
F45285.56216648221
sI271
F43184.74313881993
sI272
F45714.45298728347
sI273
F43117.29196211696
sI274
F44829.28512534499
sI275
F41835.89057394862
sI276
F43282.845253527164
sI277
F44035.40434497595
sI278
F43313.37626835704
sI279
F43394.5625025332
sI280
F42981.16872766614
sI281
F45035.34755071998
sI282
F43859.1129809618
sI283
F43139.69292533398
sI284
F44238.01660707593
sI285
F43835.037733882666
sI286
F43873.36446663737
sI287
F43893.00334101915
sI288
F43869.946470439434
sI289
F43560.65271630883
sI290
F43201.643044263124
sI291
F45009.12078747153
sI292
F46245.415938705206
sI293
F44152.4561214447
sI294
F44074.74075129628
sI295
F41713.54570761323
sI296
F46949.05305159092
sI297
F42585.8027228117
sI298
F45239.43528774381
sI299
F43950.92093014717
sI300
F43502.09607541561
sI301
F42710.39585343003
sI302
F44422.06283187866
sI303
F43853.52415025234
sI304
F41852.60216727853
sI305
F40076.16629394889
sI306
F44515.02307111025
sI307
F45744.53978872299
sI308
F43986.00442454219
sI309
F43439.713205456734
sI310
F43752.76428464055
sI311
F44166.39646187425
sI312
F43192.38488218188
sI313
F45376.045891970396
sI314
F45598.90739527345
sI315
F45151.95932909846
sI316
F45168.652102559805
sI317
F45132.65159827471
sI318
F45013.57066732645
sI319
F45388.70762428641
sI320
F45095.18813416362
sI321
F45219.41609978676
sI322
F45137.96120893955
sI323
F45159.85115984082
sI324
F45045.55434411764
sI325
F45282.95207750797
sI326
F44870.80972483754
sI327
F45297.819729566574
sI328
F45305.254946917295
sI329
F45034.59050762653
sI330
F45007.48894658685
sI331
F45259.87013280392
sI332
F45080.07013246417
sI333
F45184.57261905074
sI334
F45569.18830406666
sI335
F44948.83564820886
sI336
F45108.934277147055
sI337
F45229.122850477695
sI338
F45149.28736117482
sI339
F45158.932242780924
sI340
F45139.847480624914
sI341
F45159.82880049944
sI342
F45258.70939436555
sI343
F44996.198790848255
sI344
F45302.89136019349
sI345
F45056.38465473056
sI346
F45200.37251523137
sI347
F45122.79079642892
sI348
F45304.07353365421
sI349
F44820.62030237913
sI350
F44949.54132068157
sI351
F45150.9798720777
sI352
F45221.83142399788
sI353
F45070.65576133132
sI354
F45111.67523434758
sI355
F45145.755661726
sI356
F45215.979469418526
sI357
F45091.104123950005
sI358
F45294.822725236416
sI359
F45125.644795030355
sI360
F45136.121551692486
sI361
F45167.02465978265
sI362
F45124.8811019361
sI363
F45178.9285658896
sI364
F45131.527571976185
sI365
F45168.56112250686
sI366
F45151.95932909846
sI367
F45349.21041998267
sI368
F44949.964188843966
sI369
F45764.8096088171
sI370
F45792.202883422375
sI371
F45737.37457090616
sI372
F45652.43421921134
sI373
F45877.36236667633
sI374
F45762.49178549647
sI375
F45767.485116541386
sI376
F45903.48211324215
sI377
F45626.97751793265
sI378
F45857.59465035796
sI379
F45671.69865846634
sI380
F45902.311406344175
sI381
F45619.91009789705
sI382
F45738.1072421968
sI383
F45782.551763385534
sI384
F45603.40363931656
sI385
F45874.26390051842
sI386
F45872.821135640144
sI387
F45528.817742824554
sI388
F45887.03962209821
sI389
F45676.236053198576
sI390
F41982.332186728716
sI391
F42234.93129834533
sI392
F41396.13361874223
sI393
F41354.63753661513
sI394
F41433.85884350538
sI395
F41426.32766133547
sI396
F41364.09811246395
sI397
F42224.36409214139
sI398
F40679.36721363664
sI399
F41384.93744546175
sI400
F41367.53151190281
sI401
F41534.90534031391
sI402
F41212.54773712158
sI403
F41376.32422092557
sI404
F41407.23301079869
sI405
F41073.92687937617
sI406
F41883.42258000374
sI407
F41269.366736769676
sI408
F41507.089909642935
sI409
F40762.42578095198
sI410
F41764.28148776293
sI411
F41275.14613455534
sI412
F41457.23210257292
sI413
F41692.233795940876
sI414
F41151.46945732832
sI415
F42013.71413499117
sI416
F40587.37218686938
sI417
F41400.01042062044
sI418
F41380.27519026399
sI419
F41469.73382809758
sI420
F41325.40846893191
sI421
F41173.696894556284
sI422
F41562.152624964714
sI423
F41654.35858422518
sI424
F41152.498352617025
sI425
F41220.034086197615
sI426
F41307.99311903119
sI427
F41438.53031548858
sI428
F41512.662534087896
sI429
F41440.96344971657
sI430
F41352.68773049116
sI431
F41586.830034703016
sI432
F41320.61481907964
sI433
F41503.291221767664
sI434
F41295.003792613745
sI435
F41425.679361104965
sI436
F41364.946465194225
sI437
F41297.732834875584
sI438
F41565.930975973606
sI439
F41584.47266474366
sI440
F40765.39383915067
sI441
F41399.18705934286
sI442
F41228.217738866806
sI443
F41523.13474267721
sI444
F40776.05119386315
sI445
F41695.36103066802
sI-1
F297366.0
s.