(dp0
I0
F683693.1785888672
sI1
F701976.1487426758
sI2
F654864.3055419922
sI3
F683693.1785888672
sI4
F701976.1487426758
sI5
F654864.3055419922
sI6
F683693.1785888672
sI7
F701976.1487426758
sI8
F654864.3055419922
sI9
F583472.4490356445
sI10
F582828.2896118164
sI11
F584778.4111022949
sI12
F584304.9718322754
sI13
F584088.0714111328
sI14
F582996.6373901367
sI15
F582498.3210449219
sI16
F582728.5246582031
sI17
F583508.5006103516
sI18
F583523.8402099609
sI19
F582795.3267822266
sI20
F584922.986907959
sI21
F585239.1422424316
sI22
F585683.2932128906
sI23
F584411.94921875
sI24
F584179.9783630371
sI25
F583126.7701721191
sI26
F583326.923614502
sI27
F584408.0689086914
sI28
F583402.2791748047
sI29
F584483.3179931641
sI30
F583043.7966918945
sI31
F583845.7271728516
sI32
F584181.9839782715
sI33
F583293.6947021484
sI34
F583979.3445129395
sI35
F584129.4606323242
sI36
F582892.5953674316
sI37
F582870.3176574707
sI38
F584915.6043395996
sI39
F583747.8197937012
sI40
F583748.7632751465
sI41
F583555.7906799316
sI42
F583659.0444335938
sI43
F583819.0567932129
sI44
F583328.9614257812
sI45
F583437.2963562012
sI46
F583771.2982177734
sI47
F583433.0097351074
sI48
F583226.5798034668
sI49
F583515.8085327148
sI50
F583355.6449890137
sI51
F582980.8701171875
sI52
F583479.826171875
sI53
F583793.1279296875
sI54
F583346.1203613281
sI55
F583903.3510437012
sI56
F583866.4234008789
sI57
F583179.6719055176
sI58
F583368.7174377441
sI59
F583681.2909545898
sI60
F583732.9114074707
sI61
F583357.0014038086
sI62
F583537.3625793457
sI63
F583570.506652832
sI64
F583515.1301879883
sI65
F583468.4313659668
sI66
F583489.4538574219
sI67
F583538.972869873
sI68
F583375.7949523926
sI69
F583498.9407653809
sI70
F583326.4832763672
sI71
F583441.0278625488
sI72
F583490.5891418457
sI73
F583351.5893859863
sI74
F583581.6583251953
sI75
F583451.3904418945
sI76
F583469.6263122559
sI77
F583577.9336547852
sI78
F583511.6555175781
sI79
F583307.2763671875
sI80
F583258.7855224609
sI81
F583514.3249511719
sI82
F583398.6032104492
sI83
F583348.0868225098
sI84
F583374.2739257812
sI85
F583527.3785705566
sI86
F583257.8885803223
sI87
F583511.9808349609
sI88
F583547.4559020996
sI89
F583531.220703125
sI90
F583550.8288574219
sI91
F583563.5703125
sI92
F583484.1399841309
sI93
F583462.296875
sI94
F583500.6654663086
sI95
F583451.5150146484
sI96
F583380.1888122559
sI97
F583513.8472900391
sI98
F583430.081817627
sI99
F583505.9178161621
sI100
F583440.8817443848
sI101
F583457.0476074219
sI102
F583506.8937072754
sI103
F583478.7194213867
sI104
F583535.0288085938
sI105
F583411.2434082031
sI106
F583594.0147705078
sI107
F583416.6071472168
sI108
F583489.1451416016
sI109
F583473.7252502441
sI110
F591365.9904174805
sI111
F575192.7260131836
sI112
F587565.9216918945
sI113
F578675.5487976074
sI114
F593977.6268005371
sI115
F595217.460144043
sI116
F592616.5236206055
sI117
F594760.1795654297
sI118
F595014.3821105957
sI119
F594971.6231079102
sI120
F594173.9518432617
sI121
F594019.7591247559
sI122
F593032.6943664551
sI123
F592793.5443725586
sI124
F592540.1774902344
sI125
F594762.0804748535
sI126
F596408.0997619629
sI127
F591702.6287536621
sI128
F594963.640838623
sI129
F594810.5356445312
sI130
F594215.7837524414
sI131
F595126.510925293
sI132
F594665.7935180664
sI133
F593132.1747436523
sI134
F593697.173614502
sI135
F593113.5083312988
sI136
F593872.0621948242
sI137
F593373.5219116211
sI138
F593547.5267028809
sI139
F594209.6091003418
sI140
F594181.6037902832
sI141
F594223.5827331543
sI142
F593171.6759033203
sI143
F593478.1733703613
sI144
F595297.3056030273
sI145
F594576.6709289551
sI146
F594023.2704467773
sI147
F594278.927947998
sI148
F594069.1486206055
sI149
F594523.3219299316
sI150
F594233.6860656738
sI151
F594120.1920471191
sI152
F594038.4183654785
sI153
F594093.1706237793
sI154
F593956.3675537109
sI155
F594151.9201660156
sI156
F593545.9669799805
sI157
F593522.5355529785
sI158
F594172.682434082
sI159
F594242.6900634766
sI160
F594401.5252685547
sI161
F593945.2753601074
sI162
F594093.9823303223
sI163
F593849.6695556641
sI164
F593751.1287841797
sI165
F594465.9609375
sI166
F593757.6427307129
sI167
F593879.1871948242
sI168
F593990.5713500977
sI169
F593853.3392028809
sI170
F593955.3101501465
sI171
F593898.7467956543
sI172
F593785.2269592285
sI173
F593922.3577575684
sI174
F594159.9072570801
sI175
F594038.4950866699
sI176
F594087.7216186523
sI177
F594003.7263793945
sI178
F593988.7147521973
sI179
F593909.275390625
sI180
F594100.8541259766
sI181
F593769.4901123047
sI182
F593996.5800170898
sI183
F593810.5997924805
sI184
F593911.7303161621
sI185
F593964.1545715332
sI186
F594043.5050964355
sI187
F593878.0082092285
sI188
F594260.7602844238
sI189
F594033.399230957
sI190
F594044.2776489258
sI191
F594040.7596740723
sI192
F594097.4609680176
sI193
F593824.5860595703
sI194
F593877.327331543
sI195
F593914.3680725098
sI196
F593835.1406860352
sI197
F593987.2735900879
sI198
F593879.3100280762
sI199
F594073.1725463867
sI200
F593883.9620056152
sI201
F593835.5123596191
sI202
F593910.2682189941
sI203
F593972.1014709473
sI204
F593992.8730773926
sI205
F593960.005065918
sI206
F593995.4668579102
sI207
F594014.3472290039
sI208
F594096.1402282715
sI209
F593991.3879699707
sI210
F593921.4500732422
sI211
F593908.0006713867
sI212
F593962.1649475098
sI213
F594023.2970581055
sI214
F594026.6498718262
sI215
F602236.7482299805
sI216
F587288.3556518555
sI217
F666850.3570251465
sI218
F585867.8145751953
sI219
F586125.5536499023
sI220
F587111.1036682129
sI221
F590976.1881408691
sI222
F583733.5299377441
sI223
F587130.3965454102
sI224
F584901.8369140625
sI225
F588595.1728515625
sI226
F585075.3011169434
sI227
F578961.8217773438
sI228
F590912.0606994629
sI229
F592652.0581359863
sI230
F581824.8355712891
sI231
F572134.8055114746
sI232
F593797.0631408691
sI233
F592479.4041748047
sI234
F581634.1196289062
sI235
F579369.2711791992
sI236
F593605.2083435059
sI237
F590004.80859375
sI238
F581148.9476013184
sI239
F586455.9985351562
sI240
F584457.1104736328
sI241
F585204.3721008301
sI242
F586273.4111633301
sI243
F581543.9850158691
sI244
F589748.5329284668
sI245
F585259.1921081543
sI246
F586615.998046875
sI247
F583500.4951782227
sI248
F586680.3007202148
sI249
F586563.3444519043
sI250
F584960.5697937012
sI251
F585450.8883361816
sI252
F586737.571105957
sI253
F589680.6885375977
sI254
F582129.6134643555
sI255
F587424.5207519531
sI256
F582750.3525085449
sI257
F584323.3832092285
sI258
F586389.789642334
sI259
F589061.9881286621
sI260
F582786.3324890137
sI261
F587269.0213317871
sI262
F583975.5300292969
sI263
F582328.0190429688
sI264
F584307.054901123
sI265
F581957.4387817383
sI266
F588254.0567932129
sI267
F585881.0126342773
sI268
F581215.3404541016
sI269
F585079.540435791
sI270
F584960.3523864746
sI271
F569163.9756164551
sI272
F587514.8451538086
sI273
F582501.8937072754
sI274
F590014.7890014648
sI275
F591805.4183349609
sI276
F579606.9609985352
sI277
F575100.9909667969
sI278
F573884.656829834
sI279
F574257.9471130371
sI280
F573111.1088562012
sI281
F575676.2979431152
sI282
F569322.4560241699
sI283
F578231.7705078125
sI284
F575714.8278198242
sI285
F572389.6241149902
sI286
F578851.8495178223
sI287
F572925.3681640625
sI288
F575969.8690795898
sI289
F573140.4136352539
sI290
F569243.0231323242
sI291
F574834.0559692383
sI292
F576890.0673217773
sI293
F569009.7129821777
sI294
F574509.669921875
sI295
F575732.884979248
sI296
F572697.4609680176
sI297
F577192.7893066406
sI298
F575639.7572021484
sI299
F574733.7598266602
sI300
F572802.2302246094
sI301
F577543.2354431152
sI302
F574925.2766723633
sI303
F575234.3508300781
sI304
F579027.6224060059
sI305
F568452.9911193848
sI306
F568734.4749755859
sI307
F578872.076385498
sI308
F570920.8836669922
sI309
F581106.1430969238
sI310
F571402.8418884277
sI311
F578335.6984863281
sI312
F568470.2497253418
sI313
F580527.2641906738
sI314
F571748.2304992676
sI315
F578732.9825744629
sI316
F584289.6840515137
sI317
F570460.4195861816
sI318
F572404.5843505859
sI319
F575299.6768188477
sI320
F578421.9548339844
sI321
F566236.7215576172
sI322
F583842.4259033203
sI323
F572533.2163085938
sI324
F575249.0213317871
sI325
F578305.9111022949
sI326
F575319.8315429688
sI327
F575825.8105163574
sI328
F576095.1227722168
sI329
F574805.3607788086
sI330
F565592.2680664062
sI331
F578389.8490600586
sI332
F571787.9491577148
sI333
F579406.1381835938
sI334
F581860.2172546387
sI335
F567747.3419189453
sI336
F609989.122467041
sI337
F591691.2890319824
sI338
F592140.4504089355
sI339
F591202.3126831055
sI340
F591958.0129699707
sI341
F591505.2997131348
sI342
F592971.9169006348
sI343
F590487.0903015137
sI344
F589579.2289733887
sI345
F594052.4764404297
sI346
F593670.275390625
sI347
F589755.9809875488
sI348
F592878.5685424805
sI349
F589099.139465332
sI350
F591073.1139221191
sI351
F592780.7975158691
sI352
F590112.5955810547
sI353
F592578.0627441406
sI354
F588416.6118164062
sI355
F595560.0158996582
sI356
F592176.1911315918
sI357
F591253.0233154297
sI358
F590420.1334533691
sI359
F593395.9812011719
sI360
F587683.5327148438
sI361
F594483.4452819824
sI362
F588977.5526123047
sI363
F593119.1709899902
sI364
F593107.623840332
sI365
F591711.2373046875
sI366
F593313.3984069824
sI367
F589825.5560913086
sI368
F590384.3990478516
sI369
F592987.1722717285
sI370
F593273.7134399414
sI371
F590067.2181396484
sI372
F591845.9288330078
sI373
F592301.3620300293
sI374
F592646.1528320312
sI375
F591595.9144287109
sI376
F590758.132019043
sI377
F592709.2309265137
sI378
F589928.9063110352
sI379
F593798.4915161133
sI380
F598738.2754821777
sI381
F588714.7094421387
sI382
F591140.5942382812
sI383
F593119.3218383789
sI384
F591884.4322509766
sI385
F588843.0291137695
sI386
F591608.4462585449
sI387
F591550.0874328613
sI388
F575339.7723999023
sI389
F575438.0972595215
sI390
F575225.7574462891
sI391
F576947.3048095703
sI392
F573741.3994445801
sI393
F576313.3855895996
sI394
F574952.9573364258
sI395
F573334.1924133301
sI396
F577337.5193786621
sI397
F576344.5878295898
sI398
F574360.8000183105
sI399
F570149.7581481934
sI400
F577586.3126831055
sI401
F575321.5413818359
sI402
F575356.6287841797
sI403
F573807.8984375
sI404
F576985.3938293457
sI405
F572815.2966918945
sI406
F576688.7237243652
sI407
F574724.483581543
sI408
F576184.6745910645
sI409
F575259.9137878418
sI410
F575368.8869628906
sI411
F579735.1898803711
sI412
F570893.509765625
sI413
F577223.8760986328
sI414
F570735.6874694824
sI415
F577246.1993103027
sI416
F574703.3037414551
sI417
F574444.508972168
sI418
F577535.3280334473
sI419
F574474.7369689941
sI420
F577280.9301757812
sI421
F575167.4130859375
sI422
F576024.7321472168
sI423
F575115.3253479004
sI424
F575743.1416015625
sI425
F575477.1730957031
sI426
F575619.326965332
sI427
F574200.3243713379
sI428
F576165.0540161133
sI429
F575275.6768493652
sI430
F574969.9541320801
sI431
F575821.4907226562
sI432
F572586.5142211914
sI433
F571514.4325866699
sI434
F577091.2922058105
sI435
F576155.4949951172
sI436
F574892.8550720215
sI437
F575171.8843688965
sI438
F574816.2998046875
sI439
F632186.6940917969
sI440
F746825.2528686523
sI441
F746594.4831542969
sI442
F747039.6588134766
sI443
F746783.6324462891
sI444
F748839.5482788086
sI445
F747191.8231811523
sI446
F746443.0227661133
sI447
F745882.0808105469
sI448
F744982.4600219727
sI449
F750166.7255249023
sI450
F745069.3748779297
sI451
F747030.553527832
sI452
F746268.5706176758
sI453
F745211.6690673828
sI454
F747049.84765625
sI455
F745847.4600219727
sI456
F747604.6583251953
sI457
F747230.9857177734
sI458
F747215.7017822266
sI459
F747343.9786987305
sI460
F745785.1049194336
sI461
F746929.7096557617
sI462
F743005.3051757812
sI463
F746921.6015625
sI464
F747712.9956665039
sI465
F745414.3137207031
sI466
F748366.9560546875
sI467
F745663.4093017578
sI468
F750471.7892456055
sI469
F578318.2585144043
sI470
F578295.0356140137
sI471
F578474.2860107422
sI472
F578361.3199157715
sI473
F578302.2496032715
sI474
F577029.9329223633
sI475
F578140.8786315918
sI476
F577890.3100585938
sI477
F579344.5614929199
sI478
F580425.4462890625
sI479
F578237.1008911133
sI480
F578085.1936035156
sI481
F577451.5667724609
sI482
F578358.6093139648
sI483
F578374.5688476562
sI484
F577924.7515563965
sI485
F578628.6842346191
sI486
F579223.67578125
sI487
F578560.9901428223
sI488
F578932.235168457
sI489
F577288.8785095215
sI490
F578168.5955200195
sI491
F576555.1144714355
sI492
F578323.8811645508
sI493
F578482.3989868164
sI494
F579181.3026428223
sI495
F579182.0361633301
sI496
F577736.426574707
sI497
F578833.3064575195
sI498
F577038.2828063965
sI499
F588444.6586608887
sI500
F586103.4376220703
sI501
F591342.7927856445
sI502
F591190.1273498535
sI503
F587100.6547241211
sI504
F587581.4504089355
sI505
F587549.2795410156
sI506
F590421.5815734863
sI507
F591919.1334533691
sI508
F587153.5320739746
sI509
F594381.5440368652
sI510
F588283.8928527832
sI511
F584997.21484375
sI512
F589230.4100036621
sI513
F585442.0538024902
sI514
F589660.7336120605
sI515
F589214.5223999023
sI516
F587679.1629638672
sI517
F586542.8727111816
sI518
F586456.9364624023
sI519
F587448.0367126465
sI520
F585659.9992675781
sI521
F589924.0855712891
sI522
F586523.6622314453
sI523
F588788.157409668
sI524
F588069.5317382812
sI525
F587704.8723449707
sI526
F588592.3149108887
sI527
F586916.4691467285
sI528
F587831.2895812988
sI529
F588425.0647277832
sI530
F588286.9093322754
sI531
F588444.3461303711
sI532
F587158.9075622559
sI533
F588608.5647583008
sI534
F589860.5881958008
sI535
F587876.8370666504
sI536
F588614.4570617676
sI537
F587981.7050170898
sI538
F588538.7345581055
sI539
F588619.0747680664
sI540
F588722.007232666
sI541
F588724.9678955078
sI542
F587871.9356689453
sI543
F589032.4000854492
sI544
F588907.4348754883
sI545
F589138.3567810059
sI546
F587904.3788757324
sI547
F587842.2979736328
sI548
F588534.2263183594
sI549
F588450.4566345215
sI550
F588006.0247192383
sI551
F588431.2214050293
sI552
F588062.836517334
sI553
F588196.6177978516
sI554
F588479.2181091309
sI555
F588358.9348754883
sI556
F588386.1647949219
sI557
F589083.7868347168
sI558
F588175.5071105957
sI559
F587800.4479064941
sI560
F588450.6245727539
sI561
F588017.4862976074
sI562
F588470.8601074219
sI563
F588316.1748962402
sI564
F588483.9652709961
sI565
F588438.6396484375
sI566
F588412.0418395996
sI567
F588702.775390625
sI568
F588627.6711425781
sI569
F588399.9983825684
sI570
F588122.8796081543
sI571
F588204.0218811035
sI572
F588170.672668457
sI573
F588526.6882019043
sI574
F588350.2476196289
sI575
F588403.6060180664
sI576
F588343.9028930664
sI577
F588507.7474365234
sI578
F588827.6582946777
sI579
F588398.0825805664
sI580
F588588.3450012207
sI581
F588057.6324768066
sI582
F588686.8551635742
sI583
F588647.2704772949
sI584
F588584.7776794434
sI585
F588807.5632629395
sI586
F588395.8412475586
sI587
F588321.9439697266
sI588
F588463.2327270508
sI589
F588389.6457824707
sI590
F588323.8184204102
sI591
F588421.0414428711
sI592
F588216.5397338867
sI593
F588497.2530822754
sI594
F588490.8199768066
sI595
F588302.394317627
sI596
F588538.1121826172
sI597
F588588.1746520996
sI598
F588529.261932373
sI599
F588440.0896911621
sI600
F594123.5320739746
sI601
F582130.3744812012
sI602
F576266.6990356445
sI603
F577338.7869262695
sI604
F577755.168762207
sI605
F573704.119934082
sI606
F576192.0593566895
sI607
F578010.5715637207
sI608
F576263.0646057129
sI609
F577215.746673584
sI610
F577135.7581787109
sI611
F576112.9522705078
sI612
F575477.2994689941
sI613
F580505.2893676758
sI614
F572410.4128112793
sI615
F572072.4414978027
sI616
F572668.2551269531
sI617
F575227.824798584
sI618
F578735.1486816406
sI619
F575531.3253479004
sI620
F576442.3997192383
sI621
F576350.6038208008
sI622
F578721.734161377
sI623
F574745.2292785645
sI624
F577285.1399841309
sI625
F573897.2534484863
sI626
F574926.7658081055
sI627
F577483.2363891602
sI628
F576149.5885009766
sI629
F575555.8750915527
sI630
F576918.749786377
sI631
F576923.8777770996
sI632
F576396.5803527832
sI633
F575883.685546875
sI634
F576715.2584533691
sI635
F577028.0135192871
sI636
F576253.4449768066
sI637
F577248.414642334
sI638
F576356.7300720215
sI639
F576805.4047241211
sI640
F576441.4093933105
sI641
F576316.1347045898
sI642
F575584.6202697754
sI643
F576082.4973144531
sI644
F576307.7613830566
sI645
F575670.0647277832
sI646
F576508.9926757812
sI647
F576244.4345703125
sI648
F575457.7126159668
sI649
F576128.1064147949
sI650
F576471.6827392578
sI651
F575941.9896850586
sI652
F576359.6217956543
sI653
F576564.5904541016
sI654
F576520.1812744141
sI655
F576353.0565795898
sI656
F575950.8854064941
sI657
F576076.1661376953
sI658
F576734.6856384277
sI659
F576220.9673156738
sI660
F575795.5537719727
sI661
F575982.9842834473
sI662
F576084.9892272949
sI663
F576309.1141052246
sI664
F576365.5262145996
sI665
F576495.2772827148
sI666
F576205.5069274902
sI667
F576203.1760559082
sI668
F576264.8251647949
sI669
F576421.9800109863
sI670
F576415.0322265625
sI671
F576644.7520141602
sI672
F576184.7809753418
sI673
F576604.4454040527
sI674
F576626.4376831055
sI675
F576118.4215698242
sI676
F576370.7624206543
sI677
F576217.420715332
sI678
F576212.2383117676
sI679
F576378.8521728516
sI680
F576336.6212768555
sI681
F576159.2725830078
sI682
F576695.8478393555
sI683
F576225.1867675781
sI684
F576399.0706481934
sI685
F576089.334777832
sI686
F576059.1589355469
sI687
F576057.9942016602
sI688
F576368.0791931152
sI689
F575843.9073791504
sI690
F576101.8473510742
sI691
F576112.4378662109
sI692
F576366.0417175293
sI693
F576188.6801452637
sI694
F576239.5693359375
sI695
F576156.6304626465
sI696
F576197.5196533203
sI697
F576328.225769043
sI698
F576142.6333618164
sI699
F576309.5798034668
sI700
F576254.3753051758
sI701
F576123.102722168
sI702
F576258.8080749512
sI703
F583232.2007446289
sI704
F568909.4948120117
sI705
F588448.6867980957
sI706
F590055.1041870117
sI707
F586582.5165710449
sI708
F588293.9825439453
sI709
F587974.4930725098
sI710
F598000.1304321289
sI711
F586881.1513977051
sI712
F588239.9725952148
sI713
F588842.0618896484
sI714
F587134.6373291016
sI715
F588743.690826416
sI716
F587260.4715881348
sI717
F587028.6484069824
sI718
F588520.9644165039
sI719
F588430.123626709
sI720
F589282.4472045898
sI721
F588218.559967041
sI722
F585586.6278991699
sI723
F589390.4817199707
sI724
F586117.8591308594
sI725
F588170.2883911133
sI726
F588201.3503723145
sI727
F589091.804473877
sI728
F588734.4359436035
sI729
F588186.1170959473
sI730
F588092.6735534668
sI731
F589176.7922363281
sI732
F588904.2570495605
sI733
F591561.8461914062
sI734
F589028.3829345703
sI735
F588233.2715148926
sI736
F594123.5320739746
sI737
F582130.3744812012
sI738
F576270.0321350098
sI739
F573781.6594543457
sI740
F577183.0206604004
sI741
F575880.1581115723
sI742
F576515.1736755371
sI743
F572866.4500427246
sI744
F576330.4022827148
sI745
F575481.2226867676
sI746
F575292.3930358887
sI747
F574603.5075378418
sI748
F578837.5765991211
sI749
F574038.0107116699
sI750
F576387.5606079102
sI751
F577726.467590332
sI752
F575026.9550170898
sI753
F575384.858001709
sI754
F576199.3106689453
sI755
F579647.2218017578
sI756
F576278.6061096191
sI757
F576394.7561035156
sI758
F576925.8175964355
sI759
F577634.109588623
sI760
F583585.9010009766
sI761
F576253.6831359863
sI762
F575731.3491210938
sI763
F575398.2756347656
sI764
F576300.0878295898
sI765
F576486.4809875488
sI766
F576133.4351196289
sI767
F574785.5435180664
sI768
F576274.735168457
sI769
F583232.2007446289
sI770
F568909.4948120117
sI771
F596522.6354980469
sI772
F595782.5679016113
sI773
F597260.0644226074
sI774
F597849.9390563965
sI775
F595197.0846862793
sI776
F597323.1967468262
sI777
F595723.6153869629
sI778
F598064.1795654297
sI779
F595022.1841430664
sI780
F597114.429473877
sI781
F595950.4611206055
sI782
F594757.0785827637
sI783
F598353.4905395508
sI784
F594634.8721923828
sI785
F598428.9643859863
sI786
F597247.2975158691
sI787
F595415.0061645508
sI788
F598372.5376281738
sI789
F594530.1500244141
sI790
F595879.2333984375
sI791
F597137.6423339844
sI792
F598365.652923584
sI793
F594121.1435546875
sI794
F593231.1464233398
sI795
F597365.5586547852
sI796
F596504.2610168457
sI797
F597280.359588623
sI798
F598414.2523803711
sI799
F595252.7365112305
sI800
F596522.6354980469
sI801
F596625.9614257812
sI802
F595960.9600219727
sI803
F596506.2801208496
sI804
F596167.563873291
sI805
F597256.733795166
sI806
F596105.2345275879
sI807
F594920.7678527832
sI808
F598146.1820373535
sI809
F596233.0623474121
sI810
F597020.014251709
sI811
F595618.1081237793
sI812
F597444.9392700195
sI813
F593475.3061523438
sI814
F578870.7055358887
sI815
F578435.2788085938
sI816
F579219.5791015625
sI817
F579573.7570800781
sI818
F578082.7872314453
sI819
F580037.7134094238
sI820
F577620.7838745117
sI821
F581150.0802307129
sI822
F576557.6623535156
sI823
F578305.2302246094
sI824
F579378.914276123
sI825
F580366.3329772949
sI826
F577301.4828186035
sI827
F577466.6578979492
sI828
F580191.2383728027
sI829
F578601.7395935059
sI830
F578867.769744873
sI831
F578331.0670471191
sI832
F579241.410736084
sI833
F578563.1239929199
sI834
F579080.7830505371
sI835
F576996.3809814453
sI836
F580061.2827148438
sI837
F577277.4143371582
sI838
F580344.883605957
sI839
F575270.3773193359
sI840
F581156.085723877
sI841
F577955.3645324707
sI842
F580319.2659301758
sI843
F596522.6354980469
sI844
F596625.9614257812
sI845
F595960.9600219727
sI846
F596506.2801208496
sI847
F596167.563873291
sI848
F597256.733795166
sI849
F596105.2345275879
sI850
F594920.7678527832
sI851
F598146.1820373535
sI852
F596233.0623474121
sI853
F597020.014251709
sI854
F595618.1081237793
sI855
F597444.9392700195
sI856
F593475.3061523438
sI857
F583618.0394897461
sI858
F583528.670501709
sI859
F583438.7749328613
sI860
F583349.2132263184
sI861
F583259.4897155762
sI862
F583169.7539978027
sI863
F583080.2192993164
sI864
F582990.8483581543
sI865
F582901.1793518066
sI866
F582811.5502624512
sI867
F582721.3489074707
sI868
F582632.5834960938
sI869
F582542.349029541
sI870
F582453.083984375
sI871
F582363.3062133789
sI872
F582273.6564941406
sI873
F582184.3092346191
sI874
F582094.8453063965
sI875
F582005.285736084
sI876
F581915.1191101074
sI877
F581826.1548156738
sI878
F581736.4802856445
sI879
F581646.6656188965
sI880
F581557.2597961426
sI881
F581468.2796630859
sI882
F581378.2282714844
sI883
F581288.8433227539
sI884
F581198.9664001465
sI885
F581109.1000671387
sI886
F581020.5918579102
sI887
F580930.8359375
sI888
F569312.9970397949
sI889
F570330.6288452148
sI890
F570755.8255004883
sI891
F566807.0865478516
sI892
F569240.2533569336
sI893
F571052.2088012695
sI894
F569353.788482666
sI895
F570269.731628418
sI896
F570166.821472168
sI897
F569175.5852661133
sI898
F568537.133605957
sI899
F573550.7476501465
sI900
F565523.7255249023
sI901
F565206.0997924805
sI902
F565731.0945739746
sI903
F568187.3416137695
sI904
F571802.5786437988
sI905
F568566.4188232422
sI906
F569482.7700195312
sI907
F569438.5777282715
sI908
F571786.1206359863
sI909
F567752.187286377
sI910
F570331.399017334
sI911
F566948.656463623
sI912
F567948.2588806152
sI913
F570493.7780761719
sI914
F569157.0615539551
sI915
F568643.8532409668
sI916
F569982.3609313965
sI917
F569951.2346801758
sI918
F569420.283782959
sI919
F568974.134979248
sI920
F569745.7261047363
sI921
F570059.0391540527
sI922
F569298.622467041
sI923
F570284.0322875977
sI924
F569400.7373657227
sI925
F569856.7311706543
sI926
F569483.0111694336
sI927
F569348.8145141602
sI928
F568634.2377624512
sI929
F569114.9291381836
sI930
F569344.9776916504
sI931
F568746.8472595215
sI932
F569553.6955566406
sI933
F569282.9239196777
sI934
F568520.8001708984
sI935
F569163.6723327637
sI936
F569521.4915466309
sI937
F568983.0729370117
sI938
F569410.3809814453
sI939
F569607.2196655273
sI940
F569561.9110107422
sI941
F569404.2670288086
sI942
F569004.5651550293
sI943
F569127.0945739746
sI944
F569763.3106384277
sI945
F569264.9940490723
sI946
F568861.5751037598
sI947
F569038.8473205566
sI948
F569140.9573059082
sI949
F569357.0903625488
sI950
F569406.5918579102
sI951
F569537.4961853027
sI952
F569255.3477172852
sI953
F569248.8555908203
sI954
F569309.5811767578
sI955
F569460.6131896973
sI956
F569461.6519470215
sI957
F569681.5035095215
sI958
F569229.4203491211
sI959
F569655.3252563477
sI960
F569668.0584716797
sI961
F569159.6598205566
sI962
F569416.9424133301
sI963
F569263.9225769043
sI964
F569270.4270324707
sI965
F569424.8390808105
sI966
F569391.844909668
sI967
F569205.798034668
sI968
F569729.7758789062
sI969
F569278.2696533203
sI970
F569447.8407287598
sI971
F569135.2963256836
sI972
F569103.2844848633
sI973
F569110.0057983398
sI974
F569421.9195861816
sI975
F568889.9402160645
sI976
F569146.3780517578
sI977
F569154.8818664551
sI978
F569410.6505432129
sI979
F569231.321105957
sI980
F569282.4477233887
sI981
F569205.582611084
sI982
F569237.882019043
sI983
F569375.0588378906
sI984
F569192.2953796387
sI985
F569355.4720153809
sI986
F569300.7205505371
sI987
F569172.6923522949
sI988
F569306.5765686035
sI989
F569306.292388916
sI990
F569349.8644104004
sI991
F569320.1126403809
sI992
F569321.2503051758
sI993
F569333.7476806641
sI994
F569316.0131835938
sI995
F569357.7463378906
sI-1
F135000.0
s.