(dp0
I0
F111789.12780380249
sI1
F106922.83324813843
sI2
F116549.69145584106
sI3
F111789.12780380249
sI4
F106922.83324813843
sI5
F116549.69145584106
sI6
F111789.12780380249
sI7
F106922.83324813843
sI8
F116549.69145584106
sI9
F111789.12780380249
sI10
F106806.9736328125
sI11
F105465.83142852783
sI12
F117338.4460887909
sI13
F110721.35799598694
sI14
F106762.35696411133
sI15
F108585.12289428711
sI16
F115556.50542259216
sI17
F105630.86887741089
sI18
F112611.86489105225
sI19
F103464.75861358643
sI20
F117042.25657081604
sI21
F106502.43216705322
sI22
F109612.8978843689
sI23
F135171.40370941162
sI24
F107696.74706840515
sI25
F106050.4680480957
sI26
F110546.19676971436
sI27
F134237.13483810425
sI28
F113520.5029220581
sI29
F100016.48267745972
sI30
F111147.07669639587
sI31
F109592.8993396759
sI32
F107341.37881088257
sI33
F107658.7919998169
sI34
F130941.17699241638
sI35
F123182.02098846436
sI36
F110225.55423736572
sI37
F122586.31821632385
sI38
F110948.45198059082
sI39
F107053.13823127747
sI40
F111911.47401046753
sI41
F114356.05280303955
sI42
F109895.13940620422
sI43
F106536.29549598694
sI44
F107968.33861541748
sI45
F104502.93342018127
sI46
F107970.45722198486
sI47
F108389.15484237671
sI48
F108604.11303138733
sI49
F110974.60575294495
sI50
F108356.81459617615
sI51
F110716.69256782532
sI52
F110284.65502929688
sI53
F110341.73558807373
sI54
F111619.27932739258
sI55
F121771.94202041626
sI56
F102694.6123752594
sI57
F110333.04129219055
sI58
F107984.04129981995
sI59
F129585.66029548645
sI60
F108297.4441204071
sI61
F105790.10197067261
sI62
F112154.97302246094
sI63
F149217.77772140503
sI64
F109133.00801467896
sI65
F143662.34954452515
sI66
F109115.65546417236
sI67
F122369.51724815369
sI68
F112064.32118606567
sI69
F111232.37881088257
sI70
F111653.09062576294
sI71
F109510.14598846436
sI72
F114268.5483493805
sI73
F110295.64326667786
sI74
F111566.15044975281
sI75
F110308.65040588379
sI76
F131273.53793907166
sI77
F116387.58286094666
sI78
F110109.36688423157
sI79
F109961.84643173218
sI80
F111826.8643951416
sI81
F114584.51076889038
sI82
F111898.64693832397
sI83
F113405.23682403564
sI84
F109855.17743682861
sI85
F116286.66918945312
sI86
F98329.67066192627
sI87
F107102.1856250763
sI88
F107982.15416908264
sI89
F109429.89476013184
sI90
F110712.237159729
sI91
F111565.94199943542
sI92
F112093.98326301575
sI93
F109168.63670158386
sI94
F110381.34722137451
sI95
F114449.92618179321
sI96
F112803.30795478821
sI97
F104444.27180290222
sI98
F109730.16369056702
sI99
F99978.44343185425
sI100
F106971.76585960388
sI101
F107095.63238334656
sI102
F106971.20999908447
sI103
F111507.83167648315
sI104
F109115.89847183228
sI105
F109558.78530693054
sI106
F107994.81934165955
sI107
F108233.7832813263
sI108
F109256.05200195312
sI109
F108376.29031562805
sI110
F125205.63693237305
sI111
F119667.06840515137
sI112
F118291.45190429688
sI113
F131531.48784828186
sI114
F123910.00567817688
sI115
F119674.15069198608
sI116
F121746.9557056427
sI117
F129231.5555934906
sI118
F118378.6413898468
sI119
F126129.7385673523
sI120
F116186.67813301086
sI121
F131467.78022766113
sI122
F119402.77906227112
sI123
F122769.06314468384
sI124
F151628.8495979309
sI125
F120521.21112251282
sI126
F118888.05634498596
sI127
F123673.98007202148
sI128
F150501.94535636902
sI129
F127125.35175895691
sI130
F111583.00047111511
sI131
F124366.94126701355
sI132
F122851.68629264832
sI133
F120196.02493286133
sI134
F120705.46687889099
sI135
F146686.15729141235
sI136
F138155.35799217224
sI137
F123393.9562625885
sI138
F137468.02058792114
sI139
F124340.80980300903
sI140
F119760.37031936646
sI141
F125380.85803222656
sI142
F127928.21169090271
sI143
F122955.44498252869
sI144
F119448.83768463135
sI145
F121039.18591499329
sI146
F116995.62102890015
sI147
F121061.89726638794
sI148
F121531.75379562378
sI149
F121472.09885025024
sI150
F124225.04644012451
sI151
F121465.68001747131
sI152
F124013.96118545532
sI153
F123444.43382072449
sI154
F123670.88555717468
sI155
F124918.83982849121
sI156
F136309.4499168396
sI157
F114941.86958122253
sI158
F123502.40695381165
sI159
F121194.95680427551
sI160
F145146.30562591553
sI161
F121189.69238853455
sI162
F118565.07457733154
sI163
F125647.31782531738
sI164
F167403.07460403442
sI165
F122221.67077636719
sI166
F161134.83277511597
sI167
F122366.01778411865
sI168
F137299.49551010132
sI169
F125557.44333457947
sI170
F124665.02960014343
sI171
F125019.18057250977
sI172
F122579.28922462463
sI173
F127954.50561141968
sI174
F123550.1651096344
sI175
F125013.99781227112
sI176
F123522.62231063843
sI177
F146900.600233078
sI178
F130441.70300102234
sI179
F123261.99298667908
sI180
F123240.09050178528
sI181
F125281.27022361755
sI182
F128241.93763542175
sI183
F125285.20850753784
sI184
F127220.16379356384
sI185
F122971.1863040924
sI186
F130313.3891658783
sI187
F109646.60976982117
sI188
F120136.07373046875
sI189
F120849.45586013794
sI190
F122557.35152053833
sI191
F123993.9028377533
sI192
F124922.18371009827
sI193
F125704.64718818665
sI194
F122216.610912323
sI195
F123530.03051376343
sI196
F128292.80535316467
sI197
F126104.58440971375
sI198
F116213.9025554657
sI199
F122936.77999687195
sI200
F111459.82411956787
sI201
F119908.20496177673
sI202
F119968.27245140076
sI203
F119859.52974128723
sI204
F124736.88432693481
sI205
F122321.36999702454
sI206
F122612.92916679382
sI207
F121023.82771492004
sI208
F120925.9002609253
sI209
F122254.36810302734
sI210
F121388.61848831177
sI211
F128421.1748790741
sI212
F114054.75356292725
sI213
F114481.2432384491
sI214
F117606.32612419128
sI215
F113782.16202926636
sI216
F111754.40263938904
sI217
F129517.7762184143
sI218
F111438.34097480774
sI219
F111681.55669021606
sI220
F115311.21670722961
sI221
F115979.6917552948
sI222
F110550.35893440247
sI223
F107951.43503761292
sI224
F114514.35211753845
sI225
F112495.89209747314
sI226
F115736.93072319031
sI227
F111744.21202850342
sI228
F107282.38568115234
sI229
F110781.93859481812
sI230
F115483.38131332397
sI231
F113755.14072608948
sI232
F123455.58884239197
sI233
F112463.8655834198
sI234
F114650.2580833435
sI235
F125613.79202842712
sI236
F113623.97722244263
sI237
F115974.97477149963
sI238
F113620.82306671143
sI239
F110950.89897918701
sI240
F110734.91921806335
sI241
F120561.54455947876
sI242
F118110.41205024719
sI243
F112786.1599521637
sI244
F109722.13622283936
sI245
F110564.47631835938
sI246
F113131.92667388916
sI247
F110000.16973686218
sI248
F114005.06662750244
sI249
F114772.44213485718
sI250
F114545.86925315857
sI251
F119334.95192146301
sI252
F114957.34026908875
sI253
F114397.8085193634
sI254
F113426.50966072083
sI255
F114563.67893981934
sI256
F111278.62756347656
sI257
F113183.99715232849
sI258
F115041.03745269775
sI259
F107622.17935180664
sI260
F113220.81985282898
sI261
F111441.64274215698
sI262
F113032.21460533142
sI263
F119512.96406555176
sI264
F112676.07970237732
sI265
F113199.13549041748
sI266
F107852.31119346619
sI267
F107771.39567565918
sI268
F122092.34674453735
sI269
F115195.54245567322
sI270
F118672.35559463501
sI271
F115198.9860496521
sI272
F118246.79600334167
sI273
F108385.29259872437
sI274
F113089.68572044373
sI275
F105120.03603172302
sI276
F110118.34375190735
sI277
F111862.40172958374
sI278
F111548.55936813354
sI279
F111606.4693698883
sI280
F110427.9625492096
sI281
F114333.17085456848
sI282
F111913.34648323059
sI283
F116202.38480567932
sI284
F114584.10723495483
sI285
F116311.92007446289
sI286
F113653.19598960876
sI287
F113253.66596794128
sI288
F111981.91916656494
sI289
F112466.63939666748
sI290
F113109.13729095459
sI291
F121955.64414978027
sI292
F126419.68534469604
sI293
F115912.53629112244
sI294
F114849.92369270325
sI295
F107502.14162254333
sI296
F123967.68131637573
sI297
F112849.72645950317
sI298
F116899.81284713745
sI299
F116313.02590370178
sI300
F115570.02414894104
sI301
F111916.43278121948
sI302
F114773.48586082458
sI303
F116637.78661346436
sI304
F110942.49645996094
sI305
F107436.47920799255
sI306
F116376.75496292114
sI307
F117903.23024559021
sI308
F117878.09244346619
sI309
F106711.20324325562
sI310
F114697.29362106323
sI311
F112058.32810974121
sI312
F112063.39217567444
sI313
F122595.27579879761
sI314
F110069.3302898407
sI315
F114266.18745040894
sI316
F114228.68606567383
sI317
F114308.38705825806
sI318
F114193.19213104248
sI319
F114393.18409538269
sI320
F113978.58238983154
sI321
F114608.13614463806
sI322
F113560.15165710449
sI323
F114759.97755050659
sI324
F114353.22322654724
sI325
F114159.50031471252
sI326
F113857.3699131012
sI327
F114479.8869304657
sI328
F114943.74159622192
sI329
F113763.50574302673
sI330
F113705.68802452087
sI331
F114700.19237136841
sI332
F114154.86976242065
sI333
F114319.51886367798
sI334
F115426.64292144775
sI335
F113701.73187637329
sI336
F114061.46619796753
sI337
F114639.770652771
sI338
F114223.72916793823
sI339
F114358.93169021606
sI340
F114163.8273563385
sI341
F114496.19031715393
sI342
F114020.28775215149
sI343
F114662.2539806366
sI344
F114555.86932945251
sI345
F114082.85641098022
sI346
F114452.06164932251
sI347
F114155.97095680237
sI348
F114740.26754951477
sI349
F113264.63460350037
sI350
F114017.74809074402
sI351
F114164.40001678467
sI352
F114386.2240486145
sI353
F114131.95872688293
sI354
F113985.36124229431
sI355
F114788.87528038025
sI356
F114463.383436203
sI357
F114085.08197975159
sI358
F114570.8926563263
sI359
F114539.23937225342
sI360
F114184.43395614624
sI361
F114351.37687301636
sI362
F114154.70857429504
sI363
F114378.85049057007
sI364
F114246.71321868896
sI365
F114273.42111206055
sI366
F114266.18745040894
sI367
F115027.51796150208
sI368
F113517.41713905334
sI369
F107542.03900527954
sI370
F107603.69332504272
sI371
F107480.3264503479
sI372
F107394.76912689209
sI373
F107689.2596244812
sI374
F107533.75827407837
sI375
F107551.10731887817
sI376
F107973.06689071655
sI377
F107114.5900592804
sI378
F107709.93342971802
sI379
F107374.64860916138
sI380
F107768.47126579285
sI381
F107307.27409172058
sI382
F107221.26126098633
sI383
F107867.18325805664
sI384
F107299.15583229065
sI385
F107723.50589370728
sI386
F108146.24139785767
sI387
F106791.5525188446
sI388
F108057.69141197205
sI389
F107079.79389572144
sI390
F121196.01657867432
sI391
F120618.13320732117
sI392
F116264.46777915955
sI393
F116492.16268539429
sI394
F116052.80365753174
sI395
F116604.61573028564
sI396
F115916.32800674438
sI397
F117551.21855735779
sI398
F115116.50948524475
sI399
F118778.86345291138
sI400
F113862.54783248901
sI401
F116696.55887031555
sI402
F115700.46599960327
sI403
F116336.10541152954
sI404
F116223.33609008789
sI405
F116322.78232955933
sI406
F116326.66256141663
sI407
F115795.04454994202
sI408
F116701.84407806396
sI409
F115066.02813148499
sI410
F116943.00895309448
sI411
F115187.88316345215
sI412
F116782.8925075531
sI413
F116185.49319839478
sI414
F116496.15709877014
sI415
F116768.77189826965
sI416
F116193.71747970581
sI417
F116026.57527160645
sI418
F116758.21380996704
sI419
F116297.7447719574
sI420
F116261.22068977356
sI421
F116228.94527435303
sI422
F116297.09177207947
sI423
F116123.39972114563
sI424
F116450.60439491272
sI425
F117710.68793869019
sI426
F115409.70466995239
sI427
F116676.24035263062
sI428
F116577.29298591614
sI429
F116226.03932762146
sI430
F116268.78985786438
sI431
F115671.20389556885
sI432
F117156.12469863892
sI433
F116822.12736129761
sI434
F115767.43315124512
sI435
F116585.62101745605
sI436
F115925.64992141724
sI437
F115676.43696594238
sI438
F117022.04890823364
sI439
F116686.01130485535
sI440
F116051.56337547302
sI441
F116222.47229385376
sI442
F115982.22226524353
sI443
F117015.42337989807
sI444
F114870.68072509766
sI445
F117626.0767250061
sI-1
F300000.0
s.