(dp0
I0
F6018.661894798279
sI1
F6180.405648231506
sI2
F5764.003584861755
sI3
F6018.661894798279
sI4
F6180.405648231506
sI5
F5764.003584861755
sI6
F6018.661894798279
sI7
F6180.405648231506
sI8
F5764.003584861755
sI9
F5139.2194929122925
sI10
F5133.538725852966
sI11
F5150.875757694244
sI12
F5146.729311943054
sI13
F5144.604956150055
sI14
F5134.902358055115
sI15
F5130.582249164581
sI16
F5132.49764585495
sI17
F5139.419909000397
sI18
F5139.732776641846
sI19
F5133.2898325920105
sI20
F5152.069323062897
sI21
F5154.902855873108
sI22
F5158.957094192505
sI23
F5147.643291950226
sI24
F5145.556113243103
sI25
F5136.064884662628
sI26
F5137.966794967651
sI27
F5147.632363319397
sI28
F5138.581020355225
sI29
F5148.288245201111
sI30
F5135.371634483337
sI31
F5142.584998130798
sI32
F5145.497047424316
sI33
F5137.703776359558
sI34
F5143.738349437714
sI35
F5144.991057395935
sI36
F5134.134425163269
sI37
F5133.906144142151
sI38
F5151.823871612549
sI39
F5141.6604108810425
sI40
F5141.640728473663
sI41
F5139.901452541351
sI42
F5140.820701599121
sI43
F5142.309546947479
sI44
F5137.98957157135
sI45
F5138.910516262054
sI46
F5141.896717071533
sI47
F5138.925383090973
sI48
F5137.056820869446
sI49
F5139.568853855133
sI50
F5138.15008020401
sI51
F5134.953408718109
sI52
F5139.38498544693
sI53
F5142.051726341248
sI54
F5138.129620075226
sI55
F5142.904676914215
sI56
F5142.593706130981
sI57
F5136.720814228058
sI58
F5138.362486362457
sI59
F5141.005399227142
sI60
F5141.487277984619
sI61
F5138.203460216522
sI62
F5139.749565601349
sI63
F5140.063989639282
sI64
F5139.588734149933
sI65
F5139.236342430115
sI66
F5139.437849521637
sI67
F5139.830135822296
sI68
F5138.401505470276
sI69
F5139.419710159302
sI70
F5137.963902950287
sI71
F5138.969237327576
sI72
F5139.362356185913
sI73
F5138.2177734375
sI74
F5140.095688819885
sI75
F5138.993686199188
sI76
F5139.1396498680115
sI77
F5140.126566410065
sI78
F5139.477827548981
sI79
F5137.805543422699
sI80
F5137.4086084365845
sI81
F5139.569968223572
sI82
F5138.587655544281
sI83
F5138.105278015137
sI84
F5138.351934432983
sI85
F5139.71489238739
sI86
F5137.340635299683
sI87
F5139.59453868866
sI88
F5139.901682376862
sI89
F5139.768057823181
sI90
F5139.924749851227
sI91
F5139.996238231659
sI92
F5139.3832268714905
sI93
F5139.0550532341
sI94
F5139.56477689743
sI95
F5139.170507907867
sI96
F5138.311765193939
sI97
F5139.580639839172
sI98
F5138.895562171936
sI99
F5139.541894435883
sI100
F5138.81100320816
sI101
F5139.068453788757
sI102
F5139.638102531433
sI103
F5139.2380928993225
sI104
F5139.900498390198
sI105
F5138.583271980286
sI106
F5140.436790943146
sI107
F5138.706011772156
sI108
F5139.274433135986
sI109
F5139.218233585358
sI110
F5208.640455245972
sI111
F5066.12321472168
sI112
F5174.334874153137
sI113
F5096.814791679382
sI114
F5231.109986305237
sI115
F5242.135510921478
sI116
F5219.003908634186
sI117
F5238.165984153748
sI118
F5240.2508091926575
sI119
F5240.037088394165
sI120
F5232.943444728851
sI121
F5231.63147354126
sI122
F5222.721975326538
sI123
F5220.79293012619
sI124
F5218.407354354858
sI125
F5238.037408351898
sI126
F5252.673956394196
sI127
F5210.863544464111
sI128
F5239.887267589569
sI129
F5238.549717903137
sI130
F5233.191818237305
sI131
F5241.3648953437805
sI132
F5237.189953804016
sI133
F5223.560534000397
sI134
F5228.599662780762
sI135
F5223.356436252594
sI136
F5230.178058624268
sI137
F5225.725483894348
sI138
F5227.272740364075
sI139
F5233.162868499756
sI140
F5232.9540143013
sI141
F5233.27291059494
sI142
F5224.010934352875
sI143
F5226.715079784393
sI144
F5242.7097454071045
sI145
F5236.324377536774
sI146
F5231.557455539703
sI147
F5233.724123954773
sI148
F5231.87727022171
sI149
F5235.909775257111
sI150
F5233.348128318787
sI151
F5232.357741355896
sI152
F5231.658781528473
sI153
F5232.118799686432
sI154
F5230.893262386322
sI155
F5232.633897304535
sI156
F5227.337272167206
sI157
F5227.139376163483
sI158
F5232.850789070129
sI159
F5233.415048122406
sI160
F5234.75287437439
sI161
F5230.800109863281
sI162
F5232.122279644012
sI163
F5229.921181201935
sI164
F5229.206614971161
sI165
F5235.364625453949
sI166
F5229.2093987464905
sI167
F5230.307097434998
sI168
F5231.241411209106
sI169
F5230.014032840729
sI170
F5230.917023181915
sI171
F5230.415848731995
sI172
F5229.43129491806
sI173
F5230.675884246826
sI174
F5232.710492610931
sI175
F5231.612797260284
sI176
F5232.023495674133
sI177
F5231.302257537842
sI178
F5231.2388644218445
sI179
F5230.515498638153
sI180
F5232.277690887451
sI181
F5229.332963943481
sI182
F5231.2485637664795
sI183
F5229.650658130646
sI184
F5230.560015201569
sI185
F5231.030421257019
sI186
F5231.681983470917
sI187
F5230.27841758728
sI188
F5233.508466243744
sI189
F5231.701625823975
sI190
F5231.769860267639
sI191
F5231.618753910065
sI192
F5232.209290504456
sI193
F5229.6708607673645
sI194
F5230.347777843475
sI195
F5230.424011230469
sI196
F5229.683853149414
sI197
F5231.429943084717
sI198
F5230.115683078766
sI199
F5232.062229156494
sI200
F5230.170438289642
sI201
F5229.706630706787
sI202
F5230.5420961380005
sI203
F5231.085908412933
sI204
F5231.209589481354
sI205
F5231.022309780121
sI206
F5231.259224891663
sI207
F5231.4340715408325
sI208
F5232.300867557526
sI209
F5231.135257720947
sI210
F5230.619717597961
sI211
F5230.484858036041
sI212
F5230.961890697479
sI213
F5231.476722717285
sI214
F5231.554230690002
sI215
F5303.81360912323
sI216
F5172.134409427643
sI217
F5872.322106838226
sI218
F5159.493022918701
sI219
F5161.852851390839
sI220
F5170.42626285553
sI221
F5205.445635795593
sI222
F5140.295719623566
sI223
F5170.453097820282
sI224
F5151.110577106476
sI225
F5184.12472820282
sI226
F5152.15138053894
sI227
F5098.49467754364
sI228
F5203.894931793213
sI229
F5219.496511459351
sI230
F5123.769389152527
sI231
F5038.293857574463
sI232
F5229.525058269501
sI233
F5217.647885322571
sI234
F5122.2451276779175
sI235
F5102.361841201782
sI236
F5227.515679836273
sI237
F5196.169287204742
sI238
F5117.718153476715
sI239
F5164.72317647934
sI240
F5146.988963603973
sI241
F5153.49351978302
sI242
F5163.24080991745
sI243
F5120.980593681335
sI244
F5194.070430278778
sI245
F5153.98329782486
sI246
F5166.291377067566
sI247
F5138.411130428314
sI248
F5166.729392051697
sI249
F5165.638142585754
sI250
F5151.477110385895
sI251
F5155.8202657699585
sI252
F5167.147490978241
sI253
F5193.668798446655
sI254
F5126.0014843940735
sI255
F5173.484024524689
sI256
F5131.646495819092
sI257
F5146.005349159241
sI258
F5163.9562883377075
sI259
F5187.993993282318
sI260
F5132.031852245331
sI261
F5172.79257774353
sI262
F5142.052694320679
sI263
F5127.5356278419495
sI264
F5145.865792274475
sI265
F5124.827198982239
sI266
F5180.7518010139465
sI267
F5159.691456317902
sI268
F5118.235340595245
sI269
F5152.45348405838
sI270
F5151.491723060608
sI271
F5012.474638938904
sI272
F5174.3472990989685
sI273
F5129.650763034821
sI274
F5196.196375370026
sI275
F5211.9116044044495
sI276
F5104.201188087463
sI277
F5064.670732498169
sI278
F5053.918236732483
sI279
F5057.160707473755
sI280
F5047.066686153412
sI281
F5069.6631116867065
sI282
F5013.453675746918
sI283
F5092.762415409088
sI284
F5070.2920660972595
sI285
F5040.493242740631
sI286
F5098.124172210693
sI287
F5045.306460380554
sI288
F5072.123371124268
sI289
F5047.565801620483
sI290
F5011.965129375458
sI291
F5063.092259883881
sI292
F5080.636181354523
sI293
F5010.505944728851
sI294
F5059.664144515991
sI295
F5070.017008781433
sI296
F5043.581537246704
sI297
F5083.009683132172
sI298
F5069.540874004364
sI299
F5061.359179019928
sI300
F5044.5053696632385
sI301
F5086.093912601471
sI302
F5063.059029102325
sI303
F5065.897367954254
sI304
F5099.417674064636
sI305
F5005.864253520966
sI306
F5008.223686695099
sI307
F5098.129547119141
sI308
F5027.703475475311
sI309
F5117.808643341064
sI310
F5032.0857009887695
sI311
F5093.153820037842
sI312
F5006.045025348663
sI313
F5112.635434150696
sI314
F5035.33882188797
sI315
F5096.41744852066
sI316
F5145.546167373657
sI317
F5023.821469306946
sI318
F5040.978654384613
sI319
F5066.358243465424
sI320
F5093.710674285889
sI321
F4986.558014392853
sI322
F5142.807497501373
sI323
F5041.771262168884
sI324
F5066.860916137695
sI325
F5092.519057273865
sI326
F5066.714084148407
sI327
F5070.954803466797
sI328
F5073.41566991806
sI329
F5062.15993309021
sI330
F4981.251210689545
sI331
F5094.352422714233
sI332
F5035.421751499176
sI333
F5102.677496433258
sI334
F5124.373464584351
sI335
F4999.690734863281
sI336
F5367.326815128326
sI337
F5211.43022441864
sI338
F5215.352252483368
sI339
F5207.159471035004
sI340
F5213.77636051178
sI341
F5209.793715953827
sI342
F5222.7557826042175
sI343
F5200.780878067017
sI344
F5192.779906272888
sI345
F5232.280268669128
sI346
F5228.820038318634
sI347
F5194.423583507538
sI348
F5221.884441375732
sI349
F5188.603362083435
sI350
F5205.989528656006
sI351
F5221.018817424774
sI352
F5197.496288776398
sI353
F5219.257513523102
sI354
F5182.599787712097
sI355
F5245.4902720451355
sI356
F5215.760781764984
sI357
F5207.518448829651
sI358
F5200.222127914429
sI359
F5226.4589948654175
sI360
F5176.135105609894
sI361
F5236.0182247161865
sI362
F5187.073105335236
sI363
F5224.52653503418
sI364
F5223.895861625671
sI365
F5211.621789455414
sI366
F5225.876494407654
sI367
F5194.819235801697
sI368
F5200.048635959625
sI369
F5222.714350223541
sI370
F5225.345432758331
sI371
F5197.147604942322
sI372
F5212.748027801514
sI373
F5216.911529541016
sI374
F5219.843586444855
sI375
F5210.580327987671
sI376
F5203.242705821991
sI377
F5220.360064029694
sI378
F5195.920915603638
sI379
F5229.973146915436
sI380
F5273.471020698547
sI381
F5185.158708572388
sI382
F5206.5854659080505
sI383
F5223.990543842316
sI384
F5212.927783966064
sI385
F5186.343735694885
sI386
F5210.6139760017395
sI387
F5210.211236953735
sI388
F5068.596127986908
sI389
F5069.423862934113
sI390
F5067.640323638916
sI391
F5082.771668434143
sI392
F5054.500926971436
sI393
F5077.185265541077
sI394
F5065.18342256546
sI395
F5050.897812843323
sI396
F5086.224175930023
sI397
F5077.4349999427795
sI398
F5059.984345912933
sI399
F5022.877327919006
sI400
F5088.3860511779785
sI401
F5068.442537784576
sI402
F5068.734582424164
sI403
F5055.098790168762
sI404
F5083.096075057983
sI405
F5046.5023193359375
sI406
F5080.400853633881
sI407
F5063.155916690826
sI408
F5076.064399242401
sI409
F5067.88769865036
sI410
F5068.856215953827
sI411
F5107.548914432526
sI412
F5029.224979877472
sI413
F5085.255699634552
sI414
F5027.88543176651
sI415
F5085.4058475494385
sI416
F5062.987604141235
sI417
F5060.695965766907
sI418
F5088.055236339569
sI419
F5060.939880371094
sI420
F5085.798619270325
sI421
F5067.074410438538
sI422
F5074.639152050018
sI423
F5066.600983142853
sI424
F5072.164613246918
sI425
F5069.80513048172
sI426
F5071.05211687088
sI427
F5058.5551109313965
sI428
F5075.870719432831
sI429
F5068.134557247162
sI430
F5065.170871734619
sI431
F5072.85626077652
sI432
F5044.255084991455
sI433
F5035.051099777222
sI434
F5083.783847332001
sI435
F5075.621822357178
sI436
F5064.7118220329285
sI437
F5067.321385383606
sI438
F5063.716928482056
sI439
F5564.821826457977
sI440
F6581.688495159149
sI441
F6579.653733253479
sI442
F6583.576841831207
sI443
F6581.321607589722
sI444
F6599.446439743042
sI445
F6584.92986536026
sI446
F6578.299693584442
sI447
F6573.376261234283
sI448
F6565.449489593506
sI449
F6611.16376209259
sI450
F6566.2043533325195
sI451
F6583.498114109039
sI452
F6576.772710800171
sI453
F6567.490477561951
sI454
F6583.674292087555
sI455
F6573.058176994324
sI456
F6588.569695949554
sI457
F6585.246719360352
sI458
F6585.119213104248
sI459
F6586.3243589401245
sI460
F6572.455873966217
sI461
F6582.424318313599
sI462
F6547.5523228645325
sI463
F6582.1277322769165
sI464
F6589.739914417267
sI465
F6569.084205627441
sI466
F6595.459220409393
sI467
F6571.412660121918
sI468
F6614.70502614975
sI469
F5093.455089092255
sI470
F5093.249902248383
sI471
F5094.829724311829
sI472
F5093.835848808289
sI473
F5093.3140778541565
sI474
F5082.105473995209
sI475
F5091.875713348389
sI476
F5089.660511016846
sI477
F5102.491486549377
sI478
F5112.010990619659
sI479
F5092.745644569397
sI480
F5091.395744800568
sI481
F5085.836257457733
sI482
F5093.828757762909
sI483
F5093.918105125427
sI484
F5089.99156332016
sI485
F5096.175462722778
sI486
F5101.4134821891785
sI487
F5095.550523757935
sI488
F5098.913759231567
sI489
F5084.30206489563
sI490
F5092.156481742859
sI491
F5077.764122962952
sI492
F5093.56755065918
sI493
F5095.015008926392
sI494
F5101.164937019348
sI495
F5101.088882923126
sI496
F5088.287439823151
sI497
F5098.000118255615
sI498
F5082.018660068512
sI499
F5182.392824649811
sI500
F5161.882282733917
sI501
F5208.242396831512
sI502
F5206.722637176514
sI503
F5170.55153799057
sI504
F5174.562512397766
sI505
F5174.482846260071
sI506
F5199.827712059021
sI507
F5213.326972961426
sI508
F5170.8420333862305
sI509
F5234.97088766098
sI510
F5181.067062854767
sI511
F5151.759701251984
sI512
F5189.373058319092
sI513
F5155.958859920502
sI514
F5193.043148994446
sI515
F5189.2501764297485
sI516
F5175.659394264221
sI517
F5165.804255962372
sI518
F5165.226001262665
sI519
F5173.614960670471
sI520
F5157.92173242569
sI521
F5195.374128341675
sI522
F5165.431750297546
sI523
F5185.4564480781555
sI524
F5178.917851448059
sI525
F5175.935875415802
sI526
F5183.708005428314
sI527
F5168.882030487061
sI528
F5176.947504520416
sI529
F5182.229839801788
sI530
F5181.045557498932
sI531
F5182.372043132782
sI532
F5171.066898345947
sI533
F5183.799964427948
sI534
F5194.864684581757
sI535
F5177.305349826813
sI536
F5183.854911804199
sI537
F5178.370611190796
sI538
F5183.102482795715
sI539
F5184.040107727051
sI540
F5184.67666721344
sI541
F5184.714224815369
sI542
F5177.361198425293
sI543
F5187.496758937836
sI544
F5186.517088890076
sI545
F5188.5531458854675
sI546
F5177.535077095032
sI547
F5176.963247299194
sI548
F5183.208965301514
sI549
F5182.529496192932
sI550
F5178.543291568756
sI551
F5182.225583076477
sI552
F5179.019901275635
sI553
F5180.171809673309
sI554
F5182.670883178711
sI555
F5181.660740375519
sI556
F5181.908967971802
sI557
F5188.037467002869
sI558
F5180.026117324829
sI559
F5176.700310707092
sI560
F5182.45994758606
sI561
F5178.621718883514
sI562
F5182.580550193787
sI563
F5181.299172878265
sI564
F5182.7712235450745
sI565
F5182.374915122986
sI566
F5182.100271224976
sI567
F5184.670127391815
sI568
F5183.996467590332
sI569
F5182.027286529541
sI570
F5179.566649913788
sI571
F5180.264200687408
sI572
F5180.016184329987
sI573
F5183.093862056732
sI574
F5181.550998210907
sI575
F5182.058065891266
sI576
F5181.512833118439
sI577
F5183.015820503235
sI578
F5185.767544269562
sI579
F5181.977934360504
sI580
F5183.661542415619
sI581
F5178.960638999939
sI582
F5184.506022930145
sI583
F5184.199265956879
sI584
F5183.625942707062
sI585
F5185.613583564758
sI586
F5181.970721721649
sI587
F5181.306578159332
sI588
F5182.5717940330505
sI589
F5181.905614376068
sI590
F5181.3291482925415
sI591
F5182.182912349701
sI592
F5180.368560791016
sI593
F5182.846221446991
sI594
F5182.790904045105
sI595
F5181.133201122284
sI596
F5183.219963550568
sI597
F5183.650105476379
sI598
F5183.145422935486
sI599
F5182.348202705383
sI600
F5232.383066654205
sI601
F5126.738877773285
sI602
F5075.765580654144
sI603
F5085.272084712982
sI604
F5089.131351470947
sI605
F5052.922406673431
sI606
F5075.050997257233
sI607
F5091.247526168823
sI608
F5075.42199420929
sI609
F5083.988203525543
sI610
F5083.34023809433
sI611
F5074.347117900848
sI612
F5068.7307596206665
sI613
F5113.145715236664
sI614
F5041.589996814728
sI615
F5038.431800365448
sI616
F5043.944101810455
sI617
F5066.942615509033
sI618
F5097.45853805542
sI619
F5069.478401184082
sI620
F5077.234693527222
sI621
F5076.378684997559
sI622
F5096.8558740615845
sI623
F5062.463228702545
sI624
F5084.852436542511
sI625
F5054.736926078796
sI626
F5064.009952068329
sI627
F5086.605381965637
sI628
F5074.809023857117
sI629
F5069.41015958786
sI630
F5081.4718499183655
sI631
F5081.634208202362
sI632
F5076.894615650177
sI633
F5072.234722614288
sI634
F5079.629993438721
sI635
F5082.482574462891
sI636
F5075.829197883606
sI637
F5084.49365568161
sI638
F5076.506039142609
sI639
F5080.539203166962
sI640
F5077.328928947449
sI641
F5076.231887817383
sI642
F5069.707730770111
sI643
F5074.178986549377
sI644
F5076.207159996033
sI645
F5070.428123474121
sI646
F5078.035673618317
sI647
F5075.558775901794
sI648
F5068.604764461517
sI649
F5074.534603595734
sI650
F5077.452745437622
sI651
F5072.889482021332
sI652
F5076.5871777534485
sI653
F5078.414415359497
sI654
F5077.971391677856
sI655
F5076.527494430542
sI656
F5072.932601451874
sI657
F5074.0750823020935
sI658
F5079.850651741028
sI659
F5075.330356121063
sI660
F5071.625873088837
sI661
F5073.237680912018
sI662
F5074.17587184906
sI663
F5076.132209777832
sI664
F5076.613207817078
sI665
F5077.769516944885
sI666
F5075.217792034149
sI667
F5075.197147369385
sI668
F5075.7474184036255
sI669
F5077.108796596527
sI670
F5077.059060573578
sI671
F5079.076223373413
sI672
F5075.033256053925
sI673
F5078.737693786621
sI674
F5078.919198036194
sI675
F5074.439898490906
sI676
F5076.720105648041
sI677
F5075.319077968597
sI678
F5075.268545150757
sI679
F5076.731420040131
sI680
F5076.379416942596
sI681
F5074.820352554321
sI682
F5079.540533065796
sI683
F5075.383903503418
sI684
F5076.919889450073
sI685
F5074.20537519455
sI686
F5073.913366317749
sI687
F5073.91055727005
sI688
F5076.663043498993
sI689
F5072.041822910309
sI690
F5074.316003322601
sI691
F5074.41276884079
sI692
F5076.6496024131775
sI693
F5075.0699915885925
sI694
F5075.527992248535
sI695
F5074.794839859009
sI696
F5075.13988161087
sI697
F5076.304083824158
sI698
F5074.677794933319
sI699
F5076.1515583992
sI700
F5075.660076141357
sI701
F5074.489815235138
sI702
F5075.693470478058
sI703
F5137.117296218872
sI704
F5010.968025684357
sI705
F5182.425154209137
sI706
F5196.698666572571
sI707
F5166.111788749695
sI708
F5181.030285358429
sI709
F5178.284546852112
sI710
F5267.2152643203735
sI711
F5168.66889333725
sI712
F5180.609976768494
sI713
F5185.765664100647
sI714
F5170.868591308594
sI715
F5185.004219055176
sI716
F5171.974145412445
sI717
F5169.954833507538
sI718
F5183.056354999542
sI719
F5182.25129032135
sI720
F5189.7067403793335
sI721
F5180.399211883545
sI722
F5157.288201332092
sI723
F5190.743211269379
sI724
F5162.147377490997
sI725
F5180.030251502991
sI726
F5180.249086380005
sI727
F5188.305862903595
sI728
F5184.939816951752
sI729
F5180.1355357170105
sI730
F5179.293507099152
sI731
F5188.765485286713
sI732
F5186.392387390137
sI733
F5209.6272530555725
sI734
F5187.529748916626
sI735
F5180.521183490753
sI736
F5232.383066654205
sI737
F5126.738877773285
sI738
F5075.791965484619
sI739
F5054.358563899994
sI740
F5084.099808692932
sI741
F5072.371399879456
sI742
F5078.312873363495
sI743
F5046.035431861877
sI744
F5076.30841255188
sI745
F5068.740530967712
sI746
F5067.173155784607
sI747
F5060.875014305115
sI748
F5098.239972114563
sI749
F5055.935111045837
sI750
F5076.878710746765
sI751
F5088.769006252289
sI752
F5064.792130470276
sI753
F5068.160517692566
sI754
F5075.480309486389
sI755
F5105.693650722504
sI756
F5075.887588977814
sI757
F5076.845286846161
sI758
F5081.572364807129
sI759
F5087.860800743103
sI760
F5140.747358322144
sI761
F5075.633296489716
sI762
F5071.0925307273865
sI763
F5068.084949493408
sI764
F5076.031452655792
sI765
F5077.62008523941
sI766
F5074.588552951813
sI767
F5062.978981971741
sI768
F5075.846650600433
sI769
F5137.117296218872
sI770
F5010.968025684357
sI771
F5256.171772003174
sI772
F5249.6457533836365
sI773
F5262.674436569214
sI774
F5267.872148036957
sI775
F5244.4868540763855
sI776
F5263.2500948905945
sI777
F5249.107007026672
sI778
F5269.773469924927
sI779
F5242.932790279388
sI780
F5261.426548957825
sI781
F5251.089420795441
sI782
F5240.707458019257
sI783
F5272.217611312866
sI784
F5239.494683742523
sI785
F5273.013792991638
sI786
F5262.441772937775
sI787
F5246.474004745483
sI788
F5272.468250751495
sI789
F5238.623957157135
sI790
F5250.314570903778
sI791
F5261.772325992584
sI792
F5272.484375953674
sI793
F5234.929756164551
sI794
F5227.328954696655
sI795
F5263.388391017914
sI796
F5256.249741077423
sI797
F5262.615594387054
sI798
F5272.5143184661865
sI799
F5245.291570186615
sI800
F5256.171772003174
sI801
F5256.994439601898
sI802
F5251.348771572113
sI803
F5255.936767578125
sI804
F5253.12680721283
sI805
F5262.797231674194
sI806
F5251.950394630432
sI807
F5241.967322349548
sI808
F5270.542865753174
sI809
F5253.485597610474
sI810
F5260.679308414459
sI811
F5248.349818706512
sI812
F5264.273781776428
sI813
F5228.8976492881775
sI814
F5097.653429985046
sI815
F5093.8190751075745
sI816
F5100.727031707764
sI817
F5103.837188720703
sI818
F5090.724014759064
sI819
F5107.9478459358215
sI820
F5086.630395412445
sI821
F5117.7458963394165
sI822
F5077.2672290802
sI823
F5092.742031574249
sI824
F5102.062962055206
sI825
F5110.81667470932
sI826
F5083.842629432678
sI827
F5085.262905597687
sI828
F5109.308979988098
sI829
F5095.197402477264
sI830
F5097.672281265259
sI831
F5092.915107727051
sI832
F5100.9044642448425
sI833
F5094.876441001892
sI834
F5099.574241161346
sI835
F5080.845751285553
sI836
F5108.437023162842
sI837
F5083.844206809998
sI838
F5110.416709423065
sI839
F5066.199869155884
sI840
F5117.517716407776
sI841
F5089.728775978088
sI842
F5110.275454044342
sI843
F5256.171772003174
sI844
F5256.994439601898
sI845
F5251.348771572113
sI846
F5255.936767578125
sI847
F5253.12680721283
sI848
F5262.797231674194
sI849
F5251.950394630432
sI850
F5241.967322349548
sI851
F5270.542865753174
sI852
F5253.485597610474
sI853
F5260.679308414459
sI854
F5248.349818706512
sI855
F5264.273781776428
sI856
F5228.8976492881775
sI857
F5139.6709361076355
sI858
F5138.883204460144
sI859
F5138.090992450714
sI860
F5137.301893234253
sI861
F5136.511247634888
sI862
F5135.7203373909
sI863
F5134.931263923645
sI864
F5134.143653392792
sI865
F5133.353493213654
sI866
F5132.563768863678
sI867
F5131.768820762634
sI868
F5130.986616611481
sI869
F5130.191349506378
sI870
F5129.404731273651
sI871
F5128.61349773407
sI872
F5127.823427200317
sI873
F5127.036240577698
sI874
F5126.247744560242
sI875
F5125.4585518836975
sI876
F5124.663900375366
sI877
F5123.879839897156
sI878
F5123.089581012726
sI879
F5122.298114299774
sI880
F5121.510333061218
sI881
F5120.7262172698975
sI882
F5119.932696819305
sI883
F5119.144881725311
sI884
F5118.352815628052
sI885
F5117.56088924408
sI886
F5116.780989646912
sI887
F5115.989918231964
sI888
F5014.516157627106
sI889
F5023.543076038361
sI890
F5027.478675842285
sI891
F4992.173281669617
sI892
F5013.818941116333
sI893
F5029.954912662506
sI894
F5014.566109657288
sI895
F5022.8084025383
sI896
F5021.957998275757
sI897
F5013.241567611694
sI898
F5007.600322723389
sI899
F5051.887427330017
sI900
F4980.932797908783
sI901
F4977.954724788666
sI902
F4982.844204902649
sI903
F5004.928763866425
sI904
F5036.394277095795
sI905
F5008.127413272858
sI906
F5015.934565067291
sI907
F5015.49741268158
sI908
F5035.770870685577
sI909
F5000.868186473846
sI910
F5023.601085662842
sI911
F4993.533750534058
sI912
F5002.542067527771
sI913
F5025.040464878082
sI914
F5013.218336582184
sI915
F5008.527983188629
sI916
F5020.37460565567
sI917
F5020.217713832855
sI918
F5015.447336196899
sI919
F5011.3740067481995
sI920
F5018.242440223694
sI921
F5021.098477840424
sI922
F5014.568067073822
sI923
F5023.149425506592
sI924
F5015.237106800079
sI925
F5019.33314704895
sI926
F5016.037867069244
sI927
F5014.862308979034
sI928
F5008.488087177277
sI929
F5012.807922363281
sI930
F5014.877361774445
sI931
F5009.44673871994
sI932
F5016.770386695862
sI933
F5014.241273880005
sI934
F5007.5032687187195
sI935
F5013.19172334671
sI936
F5016.2356514930725
sI937
F5011.595046043396
sI938
F5015.376686573029
sI939
F5017.132278442383
sI940
F5016.682430267334
sI941
F5015.320650100708
sI942
F5011.748641014099
sI943
F5012.866526126862
sI944
F5018.446649551392
sI945
F5014.061498165131
sI946
F5010.548969268799
sI947
F5012.072606086731
sI948
F5013.011195659637
sI949
F5014.89742898941
sI950
F5015.318235397339
sI951
F5016.484267234802
sI952
F5013.99970293045
sI953
F5013.942311286926
sI954
F5014.484358787537
sI955
F5015.792516708374
sI956
F5015.812582492828
sI957
F5017.743435382843
sI958
F5013.769536018372
sI959
F5017.528341293335
sI960
F5017.628952026367
sI961
F5013.146500587463
sI962
F5015.469146728516
sI963
F5014.071736812592
sI964
F5014.123560428619
sI965
F5015.479488372803
sI966
F5015.208117008209
sI967
F5013.572929859161
sI968
F5018.1827602386475
sI969
F5014.194215297699
sI970
F5015.692270755768
sI971
F5012.953157901764
sI972
F5012.645182132721
sI973
F5012.711225032806
sI974
F5015.479531764984
sI975
F5010.790198802948
sI976
F5013.051121234894
sI977
F5013.129497051239
sI978
F5015.385342121124
sI979
F5013.788645744324
sI980
F5014.248542308807
sI981
F5013.568845748901
sI982
F5013.838469982147
sI983
F5015.059267044067
sI984
F5013.457887649536
sI985
F5014.898386478424
sI986
F5014.411008358002
sI987
F5013.2695026397705
sI988
F5014.457043170929
sI989
F5014.456968784332
sI990
F5014.840845108032
sI991
F5014.578715324402
sI992
F5014.588853359222
sI993
F5014.698910713196
sI994
F5014.542620182037
sI995
F5014.910291671753
sI-1
F100000.0
s.