(dp0
I0
F11005.226647853851
sI1
F11299.111613750458
sI2
F10541.726770401001
sI3
F11005.226647853851
sI4
F11299.111613750458
sI5
F10541.726770401001
sI6
F11005.226647853851
sI7
F11299.111613750458
sI8
F10541.726770401001
sI9
F9393.289896965027
sI10
F9382.932363033295
sI11
F9414.287508964539
sI12
F9406.699880123138
sI13
F9403.145898342133
sI14
F9385.602286815643
sI15
F9377.614464759827
sI16
F9381.384545326233
sI17
F9393.878693580627
sI18
F9394.1400680542
sI19
F9382.398451805115
sI20
F9416.538739681244
sI21
F9421.688581943512
sI22
F9428.798600196838
sI23
F9408.39384317398
sI24
F9404.71512746811
sI25
F9387.697016239166
sI26
F9390.961231708527
sI27
F9408.363219738007
sI28
F9392.171916484833
sI29
F9409.591775894165
sI30
F9386.415465831757
sI31
F9399.26998758316
sI32
F9404.738779067993
sI33
F9390.386507987976
sI34
F9401.409034252167
sI35
F9403.88015127182
sI36
F9383.93230342865
sI37
F9383.527878761292
sI38
F9416.623679637909
sI39
F9397.78993177414
sI40
F9397.713203430176
sI41
F9394.581982135773
sI42
F9396.255566596985
sI43
F9398.950489997864
sI44
F9391.035316467285
sI45
F9392.676631450653
sI46
F9398.232479095459
sI47
F9392.765723228455
sI48
F9389.359719753265
sI49
F9393.935326099396
sI50
F9391.322629928589
sI51
F9385.41058063507
sI52
F9393.632441997528
sI53
F9398.496552467346
sI54
F9391.249670028687
sI55
F9400.023671150208
sI56
F9399.481644153595
sI57
F9388.63060426712
sI58
F9391.707237243652
sI59
F9396.523313522339
sI60
F9397.490543365479
sI61
F9391.474849700928
sI62
F9394.290019512177
sI63
F9394.85627412796
sI64
F9393.945453166962
sI65
F9393.34278011322
sI66
F9393.734897613525
sI67
F9394.381305217743
sI68
F9391.767305374146
sI69
F9393.619853496552
sI70
F9391.009293556213
sI71
F9392.897364616394
sI72
F9393.506751060486
sI73
F9391.476734638214
sI74
F9394.860548496246
sI75
F9392.936482906342
sI76
F9393.141237258911
sI77
F9394.96074295044
sI78
F9393.811488628387
sI79
F9390.673461914062
sI80
F9389.926013469696
sI81
F9393.928746700287
sI82
F9392.091763973236
sI83
F9391.192900657654
sI84
F9391.660892486572
sI85
F9394.227111816406
sI86
F9389.771173477173
sI87
F9393.968144416809
sI88
F9394.525916576385
sI89
F9394.333107471466
sI90
F9394.561769008636
sI91
F9394.764439105988
sI92
F9393.599038124084
sI93
F9392.98003911972
sI94
F9393.967019557953
sI95
F9393.201719284058
sI96
F9391.610601902008
sI97
F9393.943659305573
sI98
F9392.666107654572
sI99
F9393.899761199951
sI100
F9392.563652038574
sI101
F9392.993778705597
sI102
F9394.071038246155
sI103
F9393.305716514587
sI104
F9394.505950450897
sI105
F9392.12992143631
sI106
F9395.56310081482
sI107
F9392.361148834229
sI108
F9393.451112270355
sI109
F9393.30910873413
sI110
F9520.038425922394
sI111
F9260.207241535187
sI112
F9459.719356536865
sI113
F9317.044724464417
sI114
F9562.279883861542
sI115
F9582.216294765472
sI116
F9540.38159608841
sI117
F9574.793976783752
sI118
F9578.966854095459
sI119
F9578.163701534271
sI120
F9565.4660654068
sI121
F9562.955704689026
sI122
F9547.127294063568
sI123
F9543.283421039581
sI124
F9539.20835351944
sI125
F9574.807834625244
sI126
F9601.317674160004
sI127
F9525.758900165558
sI128
F9578.014870643616
sI129
F9575.651739120483
sI130
F9566.06159734726
sI131
F9580.728487491608
sI132
F9573.340221881866
sI133
F9548.793628692627
sI134
F9557.835170269012
sI135
F9548.362965583801
sI136
F9560.580575466156
sI137
F9552.517547130585
sI138
F9555.290677070618
sI139
F9566.079981327057
sI140
F9565.543570041656
sI141
F9566.24925994873
sI142
F9549.301455020905
sI143
F9554.092926502228
sI144
F9583.72491979599
sI145
F9571.930509090424
sI146
F9563.037793636322
sI147
F9567.042820930481
sI148
F9563.680020809174
sI149
F9571.033957958221
sI150
F9566.392445087433
sI151
F9564.626838684082
sI152
F9563.293749332428
sI153
F9564.165802955627
sI154
F9561.939089298248
sI155
F9565.122781276703
sI156
F9555.311395168304
sI157
F9554.897377490997
sI158
F9565.496959209442
sI159
F9566.506986141205
sI160
F9569.007837295532
sI161
F9561.718812942505
sI162
F9564.169516563416
sI163
F9560.098908424377
sI164
F9558.783883571625
sI165
F9570.01921081543
sI166
F9558.757426261902
sI167
F9560.832667350769
sI168
F9562.590896606445
sI169
F9560.185948371887
sI170
F9561.8679022789
sI171
F9561.100410461426
sI172
F9559.152905464172
sI173
F9561.495798110962
sI174
F9565.228079795837
sI175
F9563.24088716507
sI176
F9563.974304199219
sI177
F9562.604992389679
sI178
F9562.552500724792
sI179
F9561.188113212585
sI180
F9564.442093849182
sI181
F9559.073615550995
sI182
F9562.517983913422
sI183
F9559.605700969696
sI184
F9561.23052930832
sI185
F9562.164943218231
sI186
F9563.279297828674
sI187
F9560.76457452774
sI188
F9566.715559005737
sI189
F9563.384959697723
sI190
F9563.546323776245
sI191
F9563.223548412323
sI192
F9564.288033485413
sI193
F9559.594738006592
sI194
F9560.87230873108
sI195
F9561.020396232605
sI196
F9559.612739562988
sI197
F9562.864761352539
sI198
F9560.403069019318
sI199
F9564.05883026123
sI200
F9560.539190769196
sI201
F9559.644993305206
sI202
F9561.138692378998
sI203
F9562.244935512543
sI204
F9562.451350212097
sI205
F9562.035375595093
sI206
F9562.59801864624
sI207
F9562.920903205872
sI208
F9564.439302921295
sI209
F9562.392885684967
sI210
F9561.377312660217
sI211
F9561.099927902222
sI212
F9561.98722410202
sI213
F9562.983754634857
sI214
F9563.079165935516
sI215
F9694.744320392609
sI216
F9454.774117469788
sI217
F10733.935887813568
sI218
F9432.614290714264
sI219
F9436.833938121796
sI220
F9452.431389808655
sI221
F9514.72113084793
sI222
F9398.771470069885
sI223
F9452.381039142609
sI224
F9417.4910364151
sI225
F9476.524040222168
sI226
F9419.945268630981
sI227
F9322.61770248413
sI228
F9512.737555503845
sI229
F9541.566507816315
sI230
F9367.72658109665
sI231
F9213.269361019135
sI232
F9559.451722621918
sI233
F9539.270659446716
sI234
F9364.336077213287
sI235
F9327.984419822693
sI236
F9557.194468975067
sI237
F9498.58583164215
sI238
F9357.438468456268
sI239
F9441.875324249268
sI240
F9410.371985435486
sI241
F9422.355278968811
sI242
F9438.786717414856
sI243
F9362.797999858856
sI244
F9495.294254779816
sI245
F9422.915665626526
sI246
F9444.521526813507
sI247
F9394.604271411896
sI248
F9445.65854549408
sI249
F9443.740614891052
sI250
F9418.102460861206
sI251
F9426.027771949768
sI252
F9446.35136604309
sI253
F9494.047793865204
sI254
F9372.36202955246
sI255
F9457.271687984467
sI256
F9383.120370388031
sI257
F9407.564000606537
sI258
F9441.18418598175
sI259
F9484.43965768814
sI260
F9382.60574388504
sI261
F9456.10249376297
sI262
F9401.471290111542
sI263
F9375.186707496643
sI264
F9407.957543373108
sI265
F9370.258768081665
sI266
F9471.008239269257
sI267
F9432.757283687592
sI268
F9359.155704498291
sI269
F9419.846474170685
sI270
F9418.155950546265
sI271
F9163.34782743454
sI272
F9459.082466602325
sI273
F9378.406471729279
sI274
F9499.584986686707
sI275
F9527.859152793884
sI276
F9332.364750862122
sI277
F9259.329845428467
sI278
F9239.977913856506
sI279
F9245.599792480469
sI280
F9227.625566005707
sI281
F9268.347324848175
sI282
F9167.924705982208
sI283
F9309.690155029297
sI284
F9269.179331302643
sI285
F9216.331330299377
sI286
F9319.799703121185
sI287
F9224.335577487946
sI288
F9273.514236450195
sI289
F9227.56494808197
sI290
F9164.232278347015
sI291
F9256.308027267456
sI292
F9287.806261062622
sI293
F9162.352443695068
sI294
F9249.933953285217
sI295
F9269.370762825012
sI296
F9220.33709192276
sI297
F9293.300169944763
sI298
F9267.8447971344
sI299
F9253.523645401001
sI300
F9222.202580451965
sI301
F9298.811716556549
sI302
F9256.442142486572
sI303
F9261.526118278503
sI304
F9322.292440414429
sI305
F9152.76518201828
sI306
F9157.405945777893
sI307
F9319.725672245026
sI308
F9192.415969371796
sI309
F9355.517346858978
sI310
F9199.795823097229
sI311
F9311.407617092133
sI312
F9152.323778629303
sI313
F9346.927590847015
sI314
F9205.253099918365
sI315
F9317.932515621185
sI316
F9406.988151550293
sI317
F9184.777021408081
sI318
F9217.136160373688
sI319
F9262.150686740875
sI320
F9311.59852027893
sI321
F9118.455283164978
sI322
F9399.753021240234
sI323
F9218.617911815643
sI324
F9262.172306060791
sI325
F9310.63735818863
sI326
F9262.996415615082
sI327
F9270.708900928497
sI328
F9275.133966445923
sI329
F9254.794817447662
sI330
F9105.248238563538
sI331
F9311.135798454285
sI332
F9205.930548667908
sI333
F9329.046331882477
sI334
F9367.718752384186
sI335
F9141.58254814148
sI336
F9824.245192050934
sI337
F9526.249277114868
sI338
F9533.489381313324
sI339
F9518.36653137207
sI340
F9530.543042182922
sI341
F9523.25495004654
sI342
F9546.839434623718
sI343
F9506.885880470276
sI344
F9492.274710655212
sI345
F9564.230592727661
sI346
F9558.121720790863
sI347
F9495.078726768494
sI348
F9545.362733840942
sI349
F9484.519065380096
sI350
F9516.295787334442
sI351
F9543.792036533356
sI352
F9500.843897819519
sI353
F9540.518856525421
sI354
F9473.5064702034
sI355
F9588.55864572525
sI356
F9534.049663066864
sI357
F9519.198652267456
sI358
F9505.754066944122
sI359
F9553.733224868774
sI360
F9461.73033952713
sI361
F9571.19942522049
sI362
F9482.709713935852
sI363
F9549.088795661926
sI364
F9549.017383098602
sI365
F9526.614518165588
sI366
F9552.184599876404
sI367
F9496.443199634552
sI368
F9504.951752662659
sI369
F9547.444187164307
sI370
F9551.80934715271
sI371
F9500.0259308815
sI372
F9528.789537906647
sI373
F9535.962779521942
sI374
F9541.609169960022
sI375
F9524.69639968872
sI376
F9511.174587726593
sI377
F9542.696630954742
sI378
F9497.746312618256
sI379
F9560.323808193207
sI380
F9639.628551483154
sI381
F9478.409975528717
sI382
F9517.361763954163
sI383
F9549.294247627258
sI384
F9529.040156364441
sI385
F9481.001658439636
sI386
F9524.702195167542
sI387
F9524.097715377808
sI388
F9266.129498958588
sI389
F9267.743354797363
sI390
F9264.254250049591
sI391
F9291.996912002563
sI392
F9240.409600257874
sI393
F9281.797511100769
sI394
F9259.9045419693
sI395
F9233.833343029022
sI396
F9298.299106121063
sI397
F9282.327179908752
sI398
F9250.349418640137
sI399
F9182.495111942291
sI400
F9302.330350399017
sI401
F9265.83165693283
sI402
F9266.4055352211
sI403
F9241.44166469574
sI404
F9292.649844169617
sI405
F9225.325887203217
sI406
F9287.93746471405
sI407
F9256.205370903015
sI408
F9279.758277893066
sI409
F9264.885828971863
sI410
F9266.568898200989
sI411
F9336.830235481262
sI412
F9194.597912311554
sI413
F9296.4366106987
sI414
F9192.074007034302
sI415
F9296.72329568863
sI416
F9256.031269550323
sI417
F9252.149296760559
sI418
F9300.453801631927
sI419
F9251.900284290314
sI420
F9298.08346414566
sI421
F9263.51429271698
sI422
F9276.88579082489
sI423
F9262.024719715118
sI424
F9272.884294986725
sI425
F9268.315142154694
sI426
F9270.69772863388
sI427
F9247.597697257996
sI428
F9279.560382843018
sI429
F9265.669889450073
sI430
F9259.434204101562
sI431
F9273.916502952576
sI432
F9221.631715297699
sI433
F9205.25548696518
sI434
F9293.879637241364
sI435
F9278.99879026413
sI436
F9259.056421756744
sI437
F9264.1485247612
sI438
F9257.25132894516
sI439
F10180.094091892242
sI440
F12020.169944286346
sI441
F12016.456069946289
sI442
F12023.620900154114
sI443
F12019.500054836273
sI444
F12052.587735652924
sI445
F12026.070367336273
sI446
F12014.01480293274
sI447
F12005.003668785095
sI448
F11990.523108959198
sI449
F12073.93593788147
sI450
F11991.91675567627
sI451
F12023.461813926697
sI452
F12011.217148780823
sI453
F11994.22083902359
sI454
F12023.790406703949
sI455
F12004.429410934448
sI456
F12032.707768440247
sI457
F12026.69102859497
sI458
F12026.452446460724
sI459
F12028.518785476685
sI460
F12003.439559936523
sI461
F12021.84801864624
sI462
F11958.713913440704
sI463
F12021.710865974426
sI464
F12034.45016336441
sI465
F11997.480686187744
sI466
F12044.980163574219
sI467
F12001.443409919739
sI468
F12078.701389312744
sI469
F9309.8650598526
sI470
F9309.491533756256
sI471
F9312.37660741806
sI472
F9310.557600021362
sI473
F9309.607167243958
sI474
F9289.124984264374
sI475
F9307.010934829712
sI476
F9302.974564552307
sI477
F9326.379798412323
sI478
F9343.781147003174
sI479
F9308.558998584747
sI480
F9306.123757839203
sI481
F9295.920762062073
sI482
F9310.51825428009
sI483
F9310.76912021637
sI484
F9303.525811195374
sI485
F9314.884233474731
sI486
F9324.463228225708
sI487
F9313.800479412079
sI488
F9319.679615974426
sI489
F9293.41104221344
sI490
F9307.425912857056
sI491
F9281.689668655396
sI492
F9309.891324043274
sI493
F9312.402587890625
sI494
F9323.627361297607
sI495
F9323.730015277863
sI496
F9300.53442811966
sI497
F9318.160016536713
sI498
F9289.906877040863
sI499
F9474.03703212738
sI500
F9436.280090808868
sI501
F9520.58017206192
sI502
F9518.2766289711
sI503
F9452.400291442871
sI504
F9460.180468559265
sI505
F9459.632341861725
sI506
F9505.75899028778
sI507
F9529.690795898438
sI508
F9453.332740783691
sI509
F9569.434594631195
sI510
F9471.47089767456
sI511
F9418.928137779236
sI512
F9486.797325134277
sI513
F9425.914161205292
sI514
F9493.706379413605
sI515
F9486.363921165466
sI516
F9462.021195411682
sI517
F9443.644099712372
sI518
F9442.588625907898
sI519
F9457.557307243347
sI520
F9429.278765678406
sI521
F9498.111397743225
sI522
F9442.731363773346
sI523
F9479.887929439545
sI524
F9467.672280788422
sI525
F9462.332437992096
sI526
F9476.499050617218
sI527
F9449.296908855438
sI528
F9463.935233592987
sI529
F9473.757277011871
sI530
F9471.623012065887
sI531
F9473.970368862152
sI532
F9453.271154403687
sI533
F9476.558741569519
sI534
F9496.861196041107
sI535
F9464.637987613678
sI536
F9476.7068567276
sI537
F9466.733704566956
sI538
F9475.280567646027
sI539
F9477.086541175842
sI540
F9478.165323257446
sI541
F9478.17406797409
sI542
F9464.803078174591
sI543
F9483.347973823547
sI544
F9481.606554985046
sI545
F9485.339942932129
sI546
F9465.104897975922
sI547
F9464.072387695312
sI548
F9475.55959701538
sI549
F9474.265331745148
sI550
F9467.048292636871
sI551
F9473.694571495056
sI552
F9467.823910713196
sI553
F9469.979570865631
sI554
F9474.544017791748
sI555
F9472.676017284393
sI556
F9473.169064998627
sI557
F9484.371901512146
sI558
F9469.701543807983
sI559
F9463.644418239594
sI560
F9474.186911582947
sI561
F9467.146623134613
sI562
F9474.42317867279
sI563
F9472.017698287964
sI564
F9474.719922065735
sI565
F9474.027048587799
sI566
F9473.51174736023
sI567
F9478.199550628662
sI568
F9476.97147846222
sI569
F9473.346894264221
sI570
F9468.831384181976
sI571
F9470.120920658112
sI572
F9469.649548530579
sI573
F9475.329693317413
sI574
F9472.487900733948
sI575
F9473.415838241577
sI576
F9472.390574932098
sI577
F9475.119781017303
sI578
F9480.231115818024
sI579
F9473.270328998566
sI580
F9476.351737499237
sI581
F9467.780509471893
sI582
F9477.913867473602
sI583
F9477.344622612
sI584
F9476.295229911804
sI585
F9479.94720172882
sI586
F9473.26932668686
sI587
F9472.06087589264
sI588
F9474.349084377289
sI589
F9473.136470794678
sI590
F9472.074459075928
sI591
F9473.657732963562
sI592
F9470.334600925446
sI593
F9474.865235328674
sI594
F9474.770258903503
sI595
F9471.73415517807
sI596
F9475.553490638733
sI597
F9476.345752239227
sI598
F9475.421730518341
sI599
F9473.960688114166
sI600
F9565.07363319397
sI601
F9372.858332633972
sI602
F9279.10124874115
sI603
F9296.609780788422
sI604
F9303.216165065765
sI605
F9237.966143131256
sI606
F9278.055082321167
sI607
F9307.152440071106
sI608
F9278.851798057556
sI609
F9294.439331054688
sI610
F9292.882899284363
sI611
F9276.554080486298
sI612
F9266.388259887695
sI613
F9346.83875322342
sI614
F9217.204823493958
sI615
F9211.835913181305
sI616
F9221.620818138123
sI617
F9262.907386302948
sI618
F9318.40575838089
sI619
F9267.472558498383
sI620
F9282.018218040466
sI621
F9280.441160202026
sI622
F9317.406216144562
sI623
F9254.483499526978
sI624
F9295.851086139679
sI625
F9240.115624904633
sI626
F9257.435186386108
sI627
F9299.180070400238
sI628
F9277.300915241241
sI629
F9267.434465408325
sI630
F9289.563688755035
sI631
F9289.89008808136
sI632
F9281.104022979736
sI633
F9272.50210762024
sI634
F9286.139199256897
sI635
F9291.390908241272
sI636
F9279.411989688873
sI637
F9295.108091831207
sI638
F9280.493846416473
sI639
F9287.832348823547
sI640
F9282.009569644928
sI641
F9279.931888103485
sI642
F9268.003750801086
sI643
F9276.224504470825
sI644
F9279.978340625763
sI645
F9269.27821302414
sI646
F9283.306557178497
sI647
F9278.732937812805
sI648
F9265.996483802795
sI649
F9276.890204906464
sI650
F9282.161556720734
sI651
F9273.830231666565
sI652
F9280.591619968414
sI653
F9283.976355075836
sI654
F9283.16692018509
sI655
F9280.504356861115
sI656
F9273.90437746048
sI657
F9275.975804328918
sI658
F9286.54355430603
sI659
F9278.294612884521
sI660
F9271.525745391846
sI661
F9274.461091041565
sI662
F9276.193292617798
sI663
F9279.757005691528
sI664
F9280.645624637604
sI665
F9282.759132385254
sI666
F9278.126819133759
sI667
F9278.047388076782
sI668
F9279.044518470764
sI669
F9281.538932800293
sI670
F9281.462428092957
sI671
F9285.17799282074
sI672
F9277.759968280792
sI673
F9284.539385795593
sI674
F9284.864136219025
sI675
F9276.680941104889
sI676
F9280.844220638275
sI677
F9278.285630702972
sI678
F9278.19485616684
sI679
F9280.883294582367
sI680
F9280.231657028198
sI681
F9277.368517875671
sI682
F9286.018319129944
sI683
F9278.419869422913
sI684
F9281.216986656189
sI685
F9276.25499868393
sI686
F9275.70781326294
sI687
F9275.70137310028
sI688
F9280.760219573975
sI689
F9272.270460128784
sI690
F9276.428169250488
sI691
F9276.614709377289
sI692
F9280.717607021332
sI693
F9277.821290493011
sI694
F9278.66737651825
sI695
F9277.32379102707
sI696
F9277.95017004013
sI697
F9280.080780029297
sI698
F9277.106783390045
sI699
F9279.794892787933
sI700
F9278.898951530457
sI701
F9276.769885540009
sI702
F9278.968737602234
sI703
F9390.736783504486
sI704
F9161.455187797546
sI705
F9474.096461296082
sI706
F9499.901989459991
sI707
F9443.879580497742
sI708
F9471.484369754791
sI709
F9466.220472812653
sI710
F9627.433346271515
sI711
F9448.538264751434
sI712
F9470.781239032745
sI713
F9480.142040729523
sI714
F9452.927865028381
sI715
F9478.754829406738
sI716
F9454.839440345764
sI717
F9451.063911914825
sI718
F9475.288516521454
sI719
F9473.772413730621
sI720
F9487.476247310638
sI721
F9470.35480594635
sI722
F9428.120553970337
sI723
F9489.471378803253
sI724
F9436.606913089752
sI725
F9469.619407653809
sI726
F9470.038947582245
sI727
F9485.282228469849
sI728
F9478.729197502136
sI729
F9469.881192207336
sI730
F9468.3637342453
sI731
F9485.816429138184
sI732
F9481.407935619354
sI733
F9524.11111497879
sI734
F9483.404520988464
sI735
F9470.603158950806
sI736
F9565.07363319397
sI737
F9372.858332633972
sI738
F9279.149821281433
sI739
F9239.60414648056
sI740
F9294.051742076874
sI741
F9272.966086387634
sI742
F9283.292778491974
sI743
F9226.136432170868
sI744
F9280.123492717743
sI745
F9266.379504203796
sI746
F9263.437613487244
sI747
F9252.0801486969
sI748
F9320.595974445343
sI749
F9243.0260014534
sI750
F9281.042483329773
sI751
F9302.74419927597
sI752
F9259.160484790802
sI753
F9265.188223361969
sI754
F9278.80293560028
sI755
F9333.493493556976
sI756
F9279.350056171417
sI757
F9281.155247688293
sI758
F9289.646733760834
sI759
F9301.133460521698
sI760
F9396.946880340576
sI761
F9278.885743618011
sI762
F9270.465447425842
sI763
F9265.114562988281
sI764
F9279.571559906006
sI765
F9282.586184501648
sI766
F9276.936417102814
sI767
F9255.337699890137
sI768
F9279.246974468231
sI769
F9390.736783504486
sI770
F9161.455187797546
sI771
F9601.7025308609
sI772
F9589.792130470276
sI773
F9613.570170879364
sI774
F9623.065687656403
sI775
F9580.367378234863
sI776
F9614.575037956238
sI777
F9588.854575157166
sI778
F9626.50737285614
sI779
F9577.558597564697
sI780
F9611.22848033905
sI781
F9592.492711544037
sI782
F9573.312631607056
sI783
F9631.140319824219
sI784
F9571.367367744446
sI785
F9632.336889266968
sI786
F9613.338824748993
sI787
F9583.913308620453
sI788
F9631.450427055359
sI789
F9569.6590924263
sI790
F9591.412896633148
sI791
F9611.55115890503
sI792
F9631.417511940002
sI793
F9563.004426002502
sI794
F9548.78184223175
sI795
F9615.23731803894
sI796
F9601.4173746109
sI797
F9613.878535747528
sI798
F9632.10870218277
sI799
F9581.311614990234
sI800
F9601.7025308609
sI801
F9603.359292507172
sI802
F9592.681050777435
sI803
F9601.434817790985
sI804
F9596.00033712387
sI805
F9613.489748954773
sI806
F9595.036863327026
sI807
F9575.91787147522
sI808
F9627.835309505463
sI809
F9597.024621486664
sI810
F9609.726326465607
sI811
F9587.201527118683
sI812
F9616.523523807526
sI813
F9552.716002464294
sI814
F9317.936367034912
sI815
F9310.929315567017
sI816
F9323.55154800415
sI817
F9329.257526397705
sI818
F9305.250340938568
sI819
F9336.711210250854
sI820
F9297.828102588654
sI821
F9354.611993789673
sI822
F9280.719541549683
sI823
F9308.841562747955
sI824
F9326.110479354858
sI825
F9342.012007713318
sI826
F9292.677936077118
sI827
F9295.37762594223
sI828
F9339.153132915497
sI829
F9313.63549566269
sI830
F9317.875542163849
sI831
F9309.211013793945
sI832
F9323.949784755707
sI833
F9313.100671291351
sI834
F9321.21513223648
sI835
F9287.930097579956
sI836
F9336.980324268341
sI837
F9292.207735061646
sI838
F9341.757843971252
sI839
F9259.916276454926
sI840
F9354.801222801208
sI841
F9303.181327819824
sI842
F9341.282234668732
sI843
F9601.7025308609
sI844
F9603.359292507172
sI845
F9592.681050777435
sI846
F9601.434817790985
sI847
F9596.00033712387
sI848
F9613.489748954773
sI849
F9595.036863327026
sI850
F9575.91787147522
sI851
F9627.835309505463
sI852
F9597.024621486664
sI853
F9609.726326465607
sI854
F9587.201527118683
sI855
F9616.523523807526
sI856
F9552.716002464294
sI857
F9396.364594459534
sI858
F9394.925970554352
sI859
F9393.478744029999
sI860
F9392.036943912506
sI861
F9390.592734336853
sI862
F9389.147892475128
sI863
F9387.706567764282
sI864
F9386.267798423767
sI865
F9384.824359416962
sI866
F9383.38149023056
sI867
F9381.92932510376
sI868
F9380.500395298004
sI869
F9379.047770500183
sI870
F9377.610750675201
sI871
F9376.16551733017
sI872
F9374.72222852707
sI873
F9373.283770084381
sI874
F9371.843737602234
sI875
F9370.401825428009
sI876
F9368.950319766998
sI877
F9367.51810503006
sI878
F9366.074486255646
sI879
F9364.62851190567
sI880
F9363.189272403717
sI881
F9361.756912231445
sI882
F9360.30724811554
sI883
F9358.868131160736
sI884
F9357.421385765076
sI885
F9355.974717140198
sI886
F9354.549845218658
sI887
F9353.104817390442
sI888
F9167.102502822876
sI889
F9183.726706504822
sI890
F9190.479875087738
sI891
F9126.87772655487
sI892
F9166.083815574646
sI893
F9195.078070640564
sI894
F9167.573782444
sI895
F9182.566877365112
sI896
F9180.6421585083
sI897
F9164.819378376007
sI898
F9154.606003284454
sI899
F9234.836993217468
sI900
F9106.284893989563
sI901
F9101.241621494293
sI902
F9109.882971286774
sI903
F9149.499272823334
sI904
F9206.756973743439
sI905
F9155.288123607635
sI906
F9169.921808719635
sI907
F9169.116283893585
sI908
F9205.717684268951
sI909
F9141.852479934692
sI910
F9183.846227169037
sI911
F9128.211366176605
sI912
F9145.036534309387
sI913
F9186.595492839813
sI914
F9164.673378944397
sI915
F9156.113619804382
sI916
F9177.845407009125
sI917
F9177.582146167755
sI918
F9168.74211549759
sI919
F9161.222810268402
sI920
F9173.886741638184
sI921
F9179.144681930542
sI922
F9167.38812160492
sI923
F9182.933756828308
sI924
F9168.459286689758
sI925
F9175.913536071777
sI926
F9169.933292865753
sI927
F9167.711831092834
sI928
F9156.060379505157
sI929
F9164.000841617584
sI930
F9167.829981327057
sI931
F9157.774530410767
sI932
F9171.277435779572
sI933
F9166.608167171478
sI934
F9154.270098686218
sI935
F9164.718094348907
sI936
F9170.223204612732
sI937
F9161.748109340668
sI938
F9168.664779663086
sI939
F9171.916826725006
sI940
F9171.094678878784
sI941
F9168.584347248077
sI942
F9162.026470184326
sI943
F9164.0528216362
sI944
F9174.260462760925
sI945
F9166.260446548462
sI946
F9159.845107078552
sI947
F9162.617857456207
sI948
F9164.35054063797
sI949
F9167.785732269287
sI950
F9168.563072681427
sI951
F9170.694628238678
sI952
F9166.185662269592
sI953
F9166.03876543045
sI954
F9167.021303653717
sI955
F9169.417091846466
sI956
F9169.469274997711
sI957
F9173.025247097015
sI958
F9165.734729766846
sI959
F9172.614396572113
sI960
F9172.789890766144
sI961
F9164.600946426392
sI962
F9168.842638969421
sI963
F9166.29073381424
sI964
F9166.38848733902
sI965
F9168.879902362823
sI966
F9168.376906394958
sI967
F9165.373281002045
sI968
F9173.819807052612
sI969
F9166.53112411499
sI970
F9169.258371829987
sI971
F9164.250805854797
sI972
F9163.674619197845
sI973
F9163.795044898987
sI974
F9168.883309364319
sI975
F9160.267463207245
sI976
F9164.400922298431
sI977
F9164.553530216217
sI978
F9168.691092014313
sI979
F9165.763487815857
sI980
F9166.612901687622
sI981
F9165.36818933487
sI982
F9165.85574054718
sI983
F9168.09064245224
sI984
F9165.162459373474
sI985
F9167.789608478546
sI986
F9166.900771141052
sI987
F9164.82451057434
sI988
F9166.99391412735
sI989
F9166.994514465332
sI990
F9167.696093559265
sI991
F9167.217054367065
sI992
F9167.23547744751
sI993
F9167.43662071228
sI994
F9167.150971412659
sI995
F9167.823041915894
sI-1
F195000.0
s.