(dp0
I0
F163832.25952148438
sI1
F168229.1425628662
sI2
F156906.0366821289
sI3
F163832.25952148438
sI4
F168229.1425628662
sI5
F156906.0366821289
sI6
F163832.25952148438
sI7
F168229.1425628662
sI8
F156906.0366821289
sI9
F139858.83584594727
sI10
F139704.13304138184
sI11
F140173.84841918945
sI12
F140061.12882995605
sI13
F140006.27015686035
sI14
F139742.59912109375
sI15
F139624.60890197754
sI16
F139677.271194458
sI17
F139865.15699768066
sI18
F139871.93612670898
sI19
F139697.2262878418
sI20
F140208.23385620117
sI21
F140284.44801330566
sI22
F140393.3225402832
sI23
F140086.54386901855
sI24
F140029.73626708984
sI25
F139774.6764831543
sI26
F139824.2559967041
sI27
F140085.4432220459
sI28
F139841.6806793213
sI29
F140103.12646484375
sI30
F139755.0345916748
sI31
F139949.94137573242
sI32
F140028.73071289062
sI33
F139816.845993042
sI34
F139981.37017822266
sI35
F140016.17436218262
sI36
F139720.28717041016
sI37
F139714.7315673828
sI38
F140202.49658203125
sI39
F139924.484375
sI40
F139925.169921875
sI41
F139877.52267456055
sI42
F139902.86520385742
sI43
F139942.6069946289
sI44
F139824.81282043457
sI45
F139850.90895080566
sI46
F139930.6360168457
sI47
F139849.22410583496
sI48
F139799.16645812988
sI49
F139868.86930847168
sI50
F139831.23344421387
sI51
F139742.820602417
sI52
F139860.27185058594
sI53
F139935.3543548584
sI54
F139828.8962249756
sI55
F139961.99333190918
sI56
F139953.15676879883
sI57
F139789.5185394287
sI58
F139834.50729370117
sI59
F139909.09671020508
sI60
F139920.93872070312
sI61
F139831.15426635742
sI62
F139873.872756958
sI63
F139882.25073242188
sI64
F139869.49508666992
sI65
F139858.150390625
sI66
F139862.86599731445
sI67
F139874.84274291992
sI68
F139835.99571228027
sI69
F139865.29118347168
sI70
F139824.3758544922
sI71
F139852.2928161621
sI72
F139862.60902404785
sI73
F139829.73612976074
sI74
F139884.00178527832
sI75
F139853.40231323242
sI76
F139857.96006774902
sI77
F139884.07872009277
sI78
F139868.27919006348
sI79
F139820.24757385254
sI80
F139807.75956726074
sI81
F139868.53547668457
sI82
F139841.6291656494
sI83
F139829.10147094727
sI84
F139835.37553405762
sI85
F139871.89126586914
sI86
F139807.85762023926
sI87
F139867.82633972168
sI88
F139876.42436218262
sI89
F139873.13325500488
sI90
F139877.3151397705
sI91
F139880.45793151855
sI92
F139861.85052490234
sI93
F139856.3839111328
sI94
F139866.49592590332
sI95
F139854.28411865234
sI96
F139836.54364013672
sI97
F139868.38850402832
sI98
F139848.40634155273
sI99
F139867.08477783203
sI100
F139850.9168548584
sI101
F139854.7872467041
sI102
F139867.55340576172
sI103
F139859.8151550293
sI104
F139873.56509399414
sI105
F139844.20024108887
sI106
F139888.7184753418
sI107
F139845.8424987793
sI108
F139863.3159942627
sI109
F139859.37313842773
sI110
F141751.48881530762
sI111
F137870.12850952148
sI112
F140819.6989440918
sI113
F138698.69480133057
sI114
F142365.1926574707
sI115
F142664.2845916748
sI116
F142037.24995422363
sI117
F142555.68182373047
sI118
F142614.29249572754
sI119
F142607.04206848145
sI120
F142413.5242614746
sI121
F142377.84565734863
sI122
F142137.50230407715
sI123
F142082.5832824707
sI124
F142020.0292816162
sI125
F142553.96913146973
sI126
F142950.6089477539
sI127
F141816.2388305664
sI128
F142603.84516906738
sI129
F142566.7252960205
sI130
F142422.1755065918
sI131
F142642.54054260254
sI132
F142530.64573669434
sI133
F142160.50569152832
sI134
F142296.9004058838
sI135
F142156.3924407959
sI136
F142339.93621826172
sI137
F142219.98440551758
sI138
F142261.94270324707
sI139
F142420.61380004883
sI140
F142414.5597076416
sI141
F142424.16313171387
sI142
F142171.93881225586
sI143
F142246.08108520508
sI144
F142680.36544799805
sI145
F142507.90882873535
sI146
F142376.87307739258
sI147
F142438.05604553223
sI148
F142387.2267150879
sI149
F142497.00274658203
sI150
F142426.30555725098
sI151
F142398.63163757324
sI152
F142379.64291381836
sI153
F142392.16165161133
sI154
F142359.2091064453
sI155
F142406.43757629395
sI156
F142262.93101501465
sI157
F142257.04107666016
sI158
F142412.03016662598
sI159
F142428.6139831543
sI160
F142466.3731994629
sI161
F142357.64361572266
sI162
F142392.74772644043
sI163
F142334.6428527832
sI164
F142310.67784118652
sI165
F142482.41926574707
sI166
F142312.9743499756
sI167
F142341.27973937988
sI168
F142368.4834136963
sI169
F142336.44834899902
sI170
F142360.3776550293
sI171
F142346.7382659912
sI172
F142319.56425476074
sI173
F142352.24926757812
sI174
F142408.01231384277
sI175
F142379.8684387207
sI176
F142391.416305542
sI177
F142372.33303833008
sI178
F142367.56591796875
sI179
F142349.5308227539
sI180
F142394.8493499756
sI181
F142316.81358337402
sI182
F142369.3563232422
sI183
F142325.3674468994
sI184
F142349.73570251465
sI185
F142362.80029296875
sI186
F142379.7373046875
sI187
F142341.3396911621
sI188
F142431.87132263184
sI189
F142378.99362182617
sI190
F142381.53427124023
sI191
F142379.74864196777
sI192
F142393.43096923828
sI193
F142328.84802246094
sI194
F142342.12886047363
sI195
F142350.06632995605
sI196
F142330.30561828613
sI197
F142368.20840454102
sI198
F142340.7045135498
sI199
F142388.31831359863
sI200
F142342.86738586426
sI201
F142330.10791015625
sI202
F142347.97164916992
sI203
F142364.42320251465
sI204
F142368.4181213379
sI205
F142359.87449645996
sI206
F142370.24322509766
sI207
F142374.58340454102
sI208
F142393.45776367188
sI209
F142369.10969543457
sI210
F142351.8565979004
sI211
F142348.02906799316
sI212
F142361.29483032227
sI213
F142376.34956359863
sI214
F142376.55694580078
sI215
F144346.96278381348
sI216
F140759.4886932373
sI217
F159827.95249938965
sI218
F140409.65797424316
sI219
F140472.6201171875
sI220
F140708.40507507324
sI221
F141649.13885498047
sI222
F139889.08741760254
sI223
F140712.6057434082
sI224
F140178.101272583
sI225
F141073.13473510742
sI226
F140213.3723297119
sI227
F138745.62982177734
sI228
F141623.58526611328
sI229
F142041.21955871582
sI230
F139437.69123840332
sI231
F137104.92504119873
sI232
F142318.01196289062
sI233
F141991.95693969727
sI234
F139396.19554138184
sI235
F138853.80825805664
sI236
F142262.07887268066
sI237
F141408.99925231934
sI238
F139270.49743652344
sI239
F140552.59545898438
sI240
F140067.7098083496
sI241
F140245.53868103027
sI242
F140511.9940185547
sI243
F139367.65090942383
sI244
F141344.94592285156
sI245
F140260.57499694824
sI246
F140593.4594116211
sI247
F139837.65391540527
sI248
F140605.9983215332
sI249
F140577.15615844727
sI250
F140191.15797424316
sI251
F140308.87055969238
sI252
F140619.83714294434
sI253
F141333.3927154541
sI254
F139504.43937683105
sI255
F140789.9242401123
sI256
F139651.82815551758
sI257
F140042.58851623535
sI258
F140531.48188781738
sI259
F141179.12684631348
sI260
F139668.14154052734
sI261
F140756.97122192383
sI262
F139947.27104187012
sI263
F139549.3147125244
sI264
F140035.8712310791
sI265
F139466.33401489258
sI266
F140983.77067565918
sI267
F140412.80207824707
sI268
F139283.63525390625
sI269
F140219.36448669434
sI270
F140191.35055541992
sI271
F136408.94161987305
sI272
F140810.4811859131
sI273
F139599.67559814453
sI274
F141405.90579223633
sI275
F141836.45921325684
sI276
F138903.9679107666
sI277
F137829.06893920898
sI278
F137535.8698577881
sI279
F137626.14739990234
sI280
F137349.5943222046
sI281
F137966.20570373535
sI282
F136431.3592300415
sI283
F138586.11387634277
sI284
F137978.89639282227
sI285
F137171.8011932373
sI286
F138733.96908569336
sI287
F137304.35025024414
sI288
F138032.66930389404
sI289
F137363.24002075195
sI290
F136410.3962020874
sI291
F137773.30283355713
sI292
F138263.36009979248
sI293
F136354.07754516602
sI294
F137689.93410491943
sI295
F137977.6987838745
sI296
F137256.24411010742
sI297
F138327.21445465088
sI298
F137961.27365112305
sI299
F137739.1109085083
sI300
F137280.04531860352
sI301
F138412.15608215332
sI302
F137786.19860839844
sI303
F137861.63426971436
sI304
F138774.50022125244
sI305
F136228.5975112915
sI306
F136293.3214416504
sI307
F138739.04042816162
sI308
F136822.45697021484
sI309
F139275.41757202148
sI310
F136942.77967834473
sI311
F138603.926612854
sI312
F136237.65803527832
sI313
F139131.0694656372
sI314
F137029.0776977539
sI315
F138695.1097946167
sI316
F140031.89933776855
sI317
F136716.3929824829
sI318
F137177.98802947998
sI319
F137877.4434890747
sI320
F138627.78791809082
sI321
F135694.86165618896
sI322
F139944.04768371582
sI323
F137205.6996536255
sI324
F137876.82502746582
sI325
F138592.65565490723
sI326
F137882.73880004883
sI327
F138002.70945739746
sI328
F138068.13333129883
sI329
F137758.75844573975
sI330
F135559.08319854736
sI331
F138633.13230895996
sI332
F137033.87198638916
sI333
F138861.0566482544
sI334
F139454.0627746582
sI335
F136059.933883667
sI336
F146091.164352417
sI337
F141818.67904663086
sI338
F141925.73107910156
sI339
F141702.13006591797
sI340
F141882.56684875488
sI341
F141774.12478637695
sI342
F142126.55819702148
sI343
F141529.20834350586
sI344
F141311.4821624756
sI345
F142385.70008850098
sI346
F142292.27731323242
sI347
F141355.53970336914
sI348
F142103.2258605957
sI349
F141197.4264678955
sI350
F141670.57958984375
sI351
F142079.6965484619
sI352
F141439.72813415527
sI353
F142031.55337524414
sI354
F141034.10485839844
sI355
F142745.59382629395
sI356
F141935.9345703125
sI357
F141712.7445678711
sI358
F141513.97080993652
sI359
F142227.2984161377
sI360
F140858.17057800293
sI361
F142487.84356689453
sI362
F141159.87019348145
sI363
F142170.32203674316
sI364
F142158.19230651855
sI365
F141823.50161743164
sI366
F142211.1042327881
sI367
F141367.27168273926
sI368
F141509.0038909912
sI369
F142125.3074645996
sI370
F142197.11799621582
sI371
F141430.22398376465
sI372
F141854.7296447754
sI373
F141967.3151397705
sI374
F142047.72958374023
sI375
F141795.66024780273
sI376
F141595.83740234375
sI377
F142061.73803710938
sI378
F141397.1902770996
sI379
F142322.62927246094
sI380
F143507.6586151123
sI381
F141103.88766479492
sI382
F141686.9197998047
sI383
F142160.33390808105
sI384
F141863.73291015625
sI385
F141132.36386108398
sI386
F141798.73373413086
sI387
F141784.50048828125
sI388
F137904.11436462402
sI389
F137926.90032196045
sI390
F137877.78817749023
sI391
F138289.78255462646
sI392
F137520.65046691895
sI393
F138137.75189971924
sI394
F137811.29099273682
sI395
F137422.8603668213
sI396
F138383.49478912354
sI397
F138144.66664886475
sI398
F137669.75371551514
sI399
F136660.40042877197
sI400
F138442.4874267578
sI401
F137899.9020767212
sI402
F137907.96799468994
sI403
F137536.9788131714
sI404
F138298.5347290039
sI405
F137302.2346496582
sI406
F138225.6901550293
sI407
F137756.396774292
sI408
F138106.9419631958
sI409
F137884.65006256104
sI410
F137911.33151245117
sI411
F138961.96364593506
sI412
F136834.6441116333
sI413
F138356.91076660156
sI414
F136797.61237335205
sI415
F138361.88105773926
sI416
F137750.7766647339
sI417
F137686.9810333252
sI418
F138437.77783203125
sI419
F137697.77562713623
sI420
F138367.3821258545
sI421
F137861.90393066406
sI422
F138069.9016571045
sI423
F137852.62900543213
sI424
F137999.66648101807
sI425
F137937.18376922607
sI426
F137970.60481262207
sI427
F137631.9112701416
sI428
F138101.25582122803
sI429
F137887.30599212646
sI430
F137816.7861175537
sI431
F138019.6949005127
sI432
F137243.60343933105
sI433
F136985.64030456543
sI434
F138322.55506134033
sI435
F138098.50303649902
sI436
F137797.17725372314
sI437
F137863.1893157959
sI438
F137776.78020477295
sI439
F151456.21487426758
sI440
F179093.13052368164
sI441
F179037.7722015381
sI442
F179144.52774047852
sI443
F179083.14738464355
sI444
F179576.2890777588
sI445
F179181.2074432373
sI446
F179001.15965270996
sI447
F178866.85371398926
sI448
F178651.14701843262
sI449
F179894.99200439453
sI450
F178671.83892822266
sI451
F179142.4347076416
sI452
F178959.42338562012
sI453
F178706.39288330078
sI454
F179147.06001281738
sI455
F178858.44218444824
sI456
F179280.26309204102
sI457
F179190.19833374023
sI458
F179186.60145568848
sI459
F179218.61408996582
sI460
F178842.52616882324
sI461
F179115.1001739502
sI462
F178168.99765014648
sI463
F179109.4160003662
sI464
F179309.90045166016
sI465
F178751.80558776855
sI466
F179465.88957214355
sI467
F178814.00967407227
sI468
F179984.1220855713
sI469
F138617.6424331665
sI470
F138612.06284332275
sI471
F138655.05032348633
sI472
F138627.9920425415
sI473
F138613.80591583252
sI474
F138308.79843139648
sI475
F138574.83409881592
sI476
F138514.65589141846
sI477
F138863.6353302002
sI478
F139122.7082672119
sI479
F138598.27420806885
sI480
F138561.61278533936
sI481
F138410.09298706055
sI482
F138627.59628295898
sI483
F138630.61372375488
sI484
F138523.3829498291
sI485
F138691.70224761963
sI486
F138834.2579574585
sI487
F138674.95037078857
sI488
F138766.0912399292
sI489
F138368.75775146484
sI490
F138582.27445220947
sI491
F138191.07066345215
sI492
F138620.42817687988
sI493
F138659.5209121704
sI494
F138827.1096343994
sI495
F138825.35847473145
sI496
F138477.25745391846
sI497
F138741.24787902832
sI498
F138304.17347717285
sI499
F141032.87704467773
sI500
F140473.9413909912
sI501
F141733.44122314453
sI502
F141693.15756225586
sI503
F140710.46589660645
sI504
F140822.0732269287
sI505
F140818.2434387207
sI506
F141507.29243469238
sI507
F141871.7205657959
sI508
F140720.43663024902
sI509
F142462.18704223633
sI510
F140995.9405517578
sI511
F140199.89637756348
sI512
F141221.2787475586
sI513
F140311.5566253662
sI514
F141323.26235961914
sI515
F141219.18838500977
sI516
F140847.38508605957
sI517
F140578.40576171875
sI518
F140558.69430541992
sI519
F140796.41513061523
sI520
F140366.65629577637
sI521
F141385.1245880127
sI522
F140573.82215881348
sI523
F141114.15182495117
sI524
F140941.75415039062
sI525
F140854.92805480957
sI526
F141067.99237060547
sI527
F140666.449508667
sI528
F140886.61819458008
sI529
F141028.4136505127
sI530
F140995.2423095703
sI531
F141032.95854187012
sI532
F140724.7078704834
sI533
F141072.07266235352
sI534
F141371.6799468994
sI535
F140896.07916259766
sI536
F141073.762008667
sI537
F140922.48051452637
sI538
F141054.4677886963
sI539
F141075.15740966797
sI540
F141098.45288085938
sI541
F141099.36210632324
sI542
F140895.3571624756
sI543
F141173.59020996094
sI544
F141144.4773864746
sI545
F141198.902053833
sI546
F140902.89878845215
sI547
F140888.33778381348
sI548
F141054.67575073242
sI549
F141034.12002563477
sI550
F140927.72256469727
sI551
F141029.80114746094
sI552
F140941.5673828125
sI553
F140973.21656799316
sI554
F141041.380859375
sI555
F141012.15852355957
sI556
F141018.75677490234
sI557
F141186.5460510254
sI558
F140968.05493164062
sI559
F140879.09442138672
sI560
F141034.1407623291
sI561
F140930.39515686035
sI562
F141039.36235046387
sI563
F141001.99183654785
sI564
F141042.04740905762
sI565
F141031.3777923584
sI566
F141024.9508972168
sI567
F141094.7127380371
sI568
F141076.628616333
sI569
F141021.9737548828
sI570
F140955.67153930664
sI571
F140975.2438659668
sI572
F140967.28254699707
sI573
F141052.44876098633
sI574
F141010.4700012207
sI575
F141023.2307434082
sI576
F141008.6960296631
sI577
F141047.95880126953
sI578
F141124.71421813965
sI579
F141021.73573303223
sI580
F141067.2339477539
sI581
F140940.22735595703
sI582
F141090.78398132324
sI583
F141081.33352661133
sI584
F141066.34321594238
sI585
F141119.7830810547
sI586
F141021.13064575195
sI587
F141003.48091125488
sI588
F141037.3824005127
sI589
F141019.71710205078
sI590
F141003.99501037598
sI591
F141027.24200439453
sI592
F140978.21600341797
sI593
F141045.42037963867
sI594
F141043.9015197754
sI595
F140998.75270080566
sI596
F141055.25535583496
sI597
F141067.17321777344
sI598
F141053.15234375
sI599
F141031.74034118652
sI600
F142395.67085266113
sI601
F139516.35774230957
sI602
F138118.81119537354
sI603
F138375.450050354
sI604
F138479.3614501953
sI605
F137499.12048339844
sI606
F138099.10441589355
sI607
F138538.8344116211
sI608
F138113.66521453857
sI609
F138344.06185913086
sI610
F138326.9693069458
sI611
F138081.05783081055
sI612
F137928.05767059326
sI613
F139137.91577911377
sI614
F137190.03260803223
sI615
F137105.3489303589
sI616
F137252.5146408081
sI617
F137873.1799621582
sI618
F138712.16580200195
sI619
F137944.0429611206
sI620
F138159.07847595215
sI621
F138136.70671844482
sI622
F138704.55184936523
sI623
F137757.4508972168
sI624
F138363.15756988525
sI625
F137552.3353729248
sI626
F137798.87532806396
sI627
F138410.05004119873
sI628
F138092.0252609253
sI629
F137948.13571166992
sI630
F138274.6123123169
sI631
F138276.63457489014
sI632
F138150.58809661865
sI633
F138026.34622955322
sI634
F138225.50444030762
sI635
F138301.35317993164
sI636
F138116.12242889404
sI637
F138354.56908416748
sI638
F138139.89388275146
sI639
F138248.30408477783
sI640
F138160.69841766357
sI641
F138131.03830718994
sI642
F137954.90803527832
sI643
F138074.96141815186
sI644
F138129.35498809814
sI645
F137975.6078338623
sI646
F138177.7986755371
sI647
F138113.49716949463
sI648
F137924.686378479
sI649
F138085.23136901855
sI650
F138167.12406921387
sI651
F138040.93797302246
sI652
F138141.19275665283
sI653
F138190.24230194092
sI654
F138179.17036437988
sI655
F138139.51959991455
sI656
F138042.90362548828
sI657
F138073.20291900635
sI658
F138230.95127105713
sI659
F138107.74296569824
sI660
F138006.01568603516
sI661
F138050.64324951172
sI662
F138075.16902160645
sI663
F138129.0329437256
sI664
F138142.36408996582
sI665
F138173.66632843018
sI666
F138104.10144805908
sI667
F138103.67584991455
sI668
F138118.45289611816
sI669
F138156.04344177246
sI670
F138154.6750717163
sI671
F138209.39306640625
sI672
F138099.2740097046
sI673
F138199.7301864624
sI674
F138204.91540527344
sI675
F138083.34815979004
sI676
F138143.5573501587
sI677
F138107.36672210693
sI678
F138105.86041259766
sI679
F138145.8020553589
sI680
F138135.5590133667
sI681
F138093.08267211914
sI682
F138221.57460784912
sI683
F138108.8530807495
sI684
F138150.5998764038
sI685
F138076.31135559082
sI686
F138069.18370819092
sI687
F138068.9711380005
sI688
F138143.13577270508
sI689
F138017.5281906128
sI690
F138079.26669311523
sI691
F138081.84993743896
sI692
F138142.6071624756
sI693
F138100.04027557373
sI694
F138112.36401367188
sI695
F138092.53267669678
sI696
F138102.1842956543
sI697
F138133.47399139404
sI698
F138089.07609558105
sI699
F138128.98761749268
sI700
F138115.82293701172
sI701
F138084.4144668579
sI702
F138116.90614318848
sI703
F139791.07159423828
sI704
F136351.40921783447
sI705
F141033.79707336426
sI706
F141421.57151794434
sI707
F140588.97465515137
sI708
F140996.92910766602
sI709
F140920.80583190918
sI710
F143336.2325592041
sI711
F140660.61753845215
sI712
F140984.11087036133
sI713
F141130.2651977539
sI714
F140719.0721130371
sI715
F141105.08428955078
sI716
F140749.75039672852
sI717
F140694.89022827148
sI718
F141050.80908203125
sI719
F141029.2712097168
sI720
F141232.6064605713
sI721
F140978.50421142578
sI722
F140348.61279296875
sI723
F141258.91912841797
sI724
F140479.69352722168
sI725
F140967.65577697754
sI726
F140974.83601379395
sI727
F141186.85612487793
sI728
F141102.43951416016
sI729
F140971.27281188965
sI730
F140948.23713684082
sI731
F141207.3543395996
sI732
F141142.38635253906
sI733
F141777.43701171875
sI734
F141172.82319641113
sI735
F140982.06387329102
sI736
F142395.67085266113
sI737
F139516.35774230957
sI738
F138119.56729888916
sI739
F137528.06311798096
sI740
F138342.09299468994
sI741
F138025.79582977295
sI742
F138183.96032714844
sI743
F137298.41693115234
sI744
F138133.79655456543
sI745
F137929.05480194092
sI746
F137884.91452026367
sI747
F137717.16819000244
sI748
F138732.08883666992
sI749
F137582.24977874756
sI750
F138148.7174911499
sI751
F138470.562789917
sI752
F137820.7702255249
sI753
F137909.267288208
sI754
F138103.56345367432
sI755
F138931.59005737305
sI756
F138121.7226638794
sI757
F138148.6711654663
sI758
F138276.91180419922
sI759
F138447.18884277344
sI760
F139881.40719604492
sI761
F138115.37798309326
sI762
F137991.49417877197
sI763
F137909.98709869385
sI764
F138126.523979187
sI765
F138170.16566467285
sI766
F138086.89427947998
sI767
F137768.6092529297
sI768
F138120.84144592285
sI769
F139791.07159423828
sI770
F136351.40921783447
sI771
F143029.60946655273
sI772
F142852.06478881836
sI773
F143206.52153015137
sI774
F143347.95309448242
sI775
F142711.68939208984
sI776
F143222.0527496338
sI777
F142837.53329467773
sI778
F143399.5964050293
sI779
F142669.48593139648
sI780
F143172.1622619629
sI781
F142891.74725341797
sI782
F142607.5675354004
sI783
F143467.42512512207
sI784
F142575.96697998047
sI785
F143487.72485351562
sI786
F143201.5916442871
sI787
F142764.86026000977
sI788
F143473.28372192383
sI789
F142551.84922790527
sI790
F142871.77238464355
sI791
F143180.43496704102
sI792
F143472.47662353516
sI793
F142452.66291809082
sI794
F142242.71942138672
sI795
F143228.37274169922
sI796
F143029.1848449707
sI797
F143207.48069763184
sI798
F143478.06968688965
sI799
F142729.88049316406
sI800
F143029.60946655273
sI801
F143052.9522705078
sI802
F142896.92277526855
sI803
F143024.18936157227
sI804
F142945.7910308838
sI805
F143208.73091125488
sI806
F142919.77600097656
sI807
F142644.03132629395
sI808
F143419.98597717285
sI809
F142958.02479553223
sI810
F143150.8525543213
sI811
F142814.78453063965
sI812
F143250.50506591797
sI813
F142291.376953125
sI814
F138743.8219909668
sI815
F138639.44889068604
sI816
F138827.4664993286
sI817
F138912.17979431152
sI818
F138555.14498138428
sI819
F139023.88943481445
sI820
F138443.90405273438
sI821
F139290.5732269287
sI822
F138189.04277038574
sI823
F138609.37509918213
sI824
F138864.58072662354
sI825
F139102.17529296875
sI826
F138367.82834625244
sI827
F138406.62651062012
sI828
F139060.99771881104
sI829
F138677.7046585083
sI830
F138743.96659851074
sI831
F138614.97775268555
sI832
F138832.1481781006
sI833
F138668.18914031982
sI834
F138796.063621521
sI835
F138288.3759689331
sI836
F139035.0846939087
sI837
F138366.29722595215
sI838
F139092.79817199707
sI839
F137885.54930877686
sI840
F139286.7121734619
sI841
F138526.87857055664
sI842
F139088.54852294922
sI843
F143029.60946655273
sI844
F143052.9522705078
sI845
F142896.92277526855
sI846
F143024.18936157227
sI847
F142945.7910308838
sI848
F143208.73091125488
sI849
F142919.77600097656
sI850
F142644.03132629395
sI851
F143419.98597717285
sI852
F142958.02479553223
sI853
F143150.8525543213
sI854
F142814.78453063965
sI855
F143250.50506591797
sI856
F142291.376953125
sI857
F139870.78814697266
sI858
F139849.35972595215
sI859
F139827.80145263672
sI860
F139806.3307647705
sI861
F139784.8176574707
sI862
F139763.29879760742
sI863
F139741.83222961426
sI864
F139720.40440368652
sI865
F139698.90228271484
sI866
F139677.4136505127
sI867
F139655.78634643555
sI868
F139634.50410461426
sI869
F139612.868850708
sI870
F139591.4669342041
sI871
F139569.93684387207
sI872
F139548.44297790527
sI873
F139527.02183532715
sI874
F139505.56727600098
sI875
F139484.09567260742
sI876
F139462.47564697266
sI877
F139441.14505004883
sI878
F139419.6418609619
sI879
F139398.1053466797
sI880
F139376.67231750488
sI881
F139355.33827209473
sI882
F139333.74642944336
sI883
F139312.31414794922
sI884
F139290.76431274414
sI885
F139269.21444702148
sI886
F139247.9959716797
sI887
F139226.47310638428
sI888
F136452.35075378418
sI889
F136695.97646331787
sI890
F136801.9377822876
sI891
F135846.29328918457
sI892
F136433.1295928955
sI893
F136871.2280883789
sI894
F136457.87133789062
sI895
F136679.45848846436
sI896
F136656.8593826294
sI897
F136418.51376342773
sI898
F136264.85373687744
sI899
F137471.178565979
sI900
F135539.67371368408
sI901
F135459.9027633667
sI902
F135590.08921051025
sI903
F136185.94929504395
sI904
F137050.7082748413
sI905
F136274.88748931885
sI906
F136491.2318725586
sI907
F136480.23960113525
sI908
F137042.42469024658
sI909
F136081.546585083
sI910
F136696.68967437744
sI911
F135887.0637359619
sI912
F136126.46989440918
sI913
F136735.0519104004
sI914
F136416.27793884277
sI915
F136291.6375579834
sI916
F136612.29181671143
sI917
F136605.64769744873
sI918
F136478.72694396973
sI919
F136370.43032073975
sI920
F136555.26975250244
sI921
F136631.23614501953
sI922
F136449.3934173584
sI923
F136685.55113983154
sI924
F136472.88899230957
sI925
F136583.0401916504
sI926
F136493.11241149902
sI927
F136461.31616210938
sI928
F136289.24910736084
sI929
F136405.18576049805
sI930
F136460.7117614746
sI931
F136316.4271621704
sI932
F136510.94422912598
sI933
F136445.17140197754
sI934
F136262.24214935303
sI935
F136416.2151184082
sI936
F136501.50813293457
sI937
F136373.23988342285
sI938
F136475.79473876953
sI939
F136522.90369415283
sI940
F136511.62732696533
sI941
F136474.22966003418
sI942
F136378.21115112305
sI943
F136407.84907531738
sI944
F136560.26670074463
sI945
F136440.74295043945
sI946
F136344.26307678223
sI947
F136386.47109222412
sI948
F136411.02055358887
sI949
F136462.97340393066
sI950
F136474.65642547607
sI951
F136506.2329864502
sI952
F136438.48664093018
sI953
F136437.06618499756
sI954
F136451.6230316162
sI955
F136487.7502975464
sI956
F136488.28495025635
sI957
F136540.6516342163
sI958
F136432.41735076904
sI959
F136534.36074066162
sI960
F136537.3376312256
sI961
F136415.6771774292
sI962
F136477.0697402954
sI963
F136440.95156097412
sI964
F136442.23649597168
sI965
F136479.265335083
sI966
F136471.23067474365
sI967
F136426.6771850586
sI968
F136552.16024780273
sI969
F136444.01264953613
sI970
F136484.72913360596
sI971
F136409.76805877686
sI972
F136402.20281219482
sI973
F136403.8713912964
sI974
F136478.47421264648
sI975
F136351.00576019287
sI976
F136412.38487243652
sI977
F136414.47173309326
sI978
F136475.74514007568
sI979
F136432.70639038086
sI980
F136445.08603668213
sI981
F136426.70697021484
sI982
F136434.30514526367
sI983
F136467.14295196533
sI984
F136423.419631958
sI985
F136462.4313812256
sI986
F136449.37410736084
sI987
F136418.73998260498
sI988
F136450.79652404785
sI989
F136450.74073791504
sI990
F136461.18795776367
sI991
F136454.05520629883
sI992
F136454.32804870605
sI993
F136457.32388305664
sI994
F136453.0730895996
sI995
F136463.07579803467
sI-1
F105000.0
s.