(dp0
I0
F3801.82249905169
sI1
F3452.0416267961264
sI2
F4210.729568205774
sI3
F3801.82249905169
sI4
F3452.0416267961264
sI5
F4210.729568205774
sI6
F3801.82249905169
sI7
F3452.0416267961264
sI8
F4210.729568205774
sI9
F3801.82249905169
sI10
F3475.8234725371003
sI11
F3310.236817367375
sI12
F3985.4593467339873
sI13
F3867.2063575461507
sI14
F3465.958560578525
sI15
F3546.7431466430426
sI16
F4167.043233714998
sI17
F3365.608509168029
sI18
F3960.4324258342385
sI19
F3146.1350457519293
sI20
F3763.6948027461767
sI21
F3387.2180191725492
sI22
F3739.8276375085115
sI23
F4699.294817268848
sI24
F3648.8754317611456
sI25
F3365.4544006064534
sI26
F3914.3951709270477
sI27
F4692.933072224259
sI28
F4050.473463922739
sI29
F3417.516420289874
sI30
F3918.218269251287
sI31
F3573.168882444501
sI32
F3664.0512935221195
sI33
F3451.1649111285806
sI34
F4682.64327172935
sI35
F4248.963536329567
sI36
F3872.489502310753
sI37
F4221.484776996076
sI38
F3756.3226645588875
sI39
F3646.926959373057
sI40
F3757.871662609279
sI41
F4055.043123319745
sI42
F3821.17517670244
sI43
F3419.230260923505
sI44
F3449.2933294326067
sI45
F3378.171024546027
sI46
F3473.6000059619546
sI47
F3476.893070884049
sI48
F3788.1067497506738
sI49
F3806.4631446003914
sI50
F3521.21239656955
sI51
F3752.69870788604
sI52
F3849.1626859605312
sI53
F3635.659027338028
sI54
F3952.3120287805796
sI55
F4378.190939202905
sI56
F3298.3337662667036
sI57
F3836.772145025432
sI58
F3310.8763636648655
sI59
F4535.739667207003
sI60
F3719.0916357189417
sI61
F3330.8929443508387
sI62
F3893.303823955357
sI63
F5325.1448129191995
sI64
F3671.7402870059013
sI65
F5146.529538206756
sI66
F3521.6796295419335
sI67
F3987.497108951211
sI68
F3880.1314520314336
sI69
F3651.1383109912276
sI70
F3894.1156906858087
sI71
F3720.107172586024
sI72
F4077.5045165643096
sI73
F3754.0350762605667
sI74
F3764.858428224921
sI75
F3793.718746624887
sI76
F4887.6183277741075
sI77
F3870.316447250545
sI78
F3783.580861888826
sI79
F3580.0539517849684
sI80
F3833.8805866092443
sI81
F4169.736836396158
sI82
F3926.7841690555215
sI83
F3568.5919803902507
sI84
F3885.81689376384
sI85
F4180.045683331788
sI86
F3578.2796483784914
sI87
F3338.4974391907454
sI88
F3692.976402170956
sI89
F3695.68019105494
sI90
F3738.0203477442265
sI91
F3821.7612633928657
sI92
F3705.5471864566207
sI93
F3725.078574553132
sI94
F3827.2498717680573
sI95
F3866.469320908189
sI96
F4208.872877538204
sI97
F4325.813942074776
sI98
F3689.2936959713697
sI99
F3475.640379399061
sI100
F3416.7912840023637
sI101
F3490.5352612808347
sI102
F3498.622662112117
sI103
F4009.3572926670313
sI104
F3569.7372960820794
sI105
F3795.2138113081455
sI106
F3523.263410024345
sI107
F3909.476085074246
sI108
F3808.8139321431518
sI109
F3609.17611284554
sI110
F4408.683196686208
sI111
F4029.424047142267
sI112
F3844.447165541351
sI113
F4629.566068887711
sI114
F4480.958877682686
sI115
F4020.5014144331217
sI116
F4115.987672872841
sI117
F4826.441190831363
sI118
F3901.403081037104
sI119
F4595.137739382684
sI120
F3658.756017431617
sI121
F4386.523152045906
sI122
F3930.302129022777
sI123
F4337.5596008226275
sI124
F5467.709254823625
sI125
F4226.520554557443
sI126
F3902.6011606156826
sI127
F4530.514963179827
sI128
F5455.967373467982
sI129
F4704.500080212951
sI130
F3940.1083050593734
sI131
F4537.009354010224
sI132
F4148.019538342953
sI133
F4247.310136154294
sI134
F4006.316914886236
sI135
F5439.808214969933
sI136
F4938.274717792869
sI137
F4483.3069329708815
sI138
F4911.380585819483
sI139
F4361.96197796613
sI140
F4215.984775751829
sI141
F4362.269564889371
sI142
F4695.3841292485595
sI143
F4424.202872827649
sI144
F3967.4019349962473
sI145
F4002.855112865567
sI146
F3907.817637115717
sI147
F4030.374022677541
sI148
F4036.770792774856
sI149
F4385.9098312184215
sI150
F4404.241994403303
sI151
F4085.0971422567964
sI152
F4352.827857233584
sI153
F4456.681135170162
sI154
F4220.490404501557
sI155
F4581.490410074592
sI156
F5076.818912610412
sI157
F3818.9052135646343
sI158
F4443.688618764281
sI159
F3846.628363214433
sI160
F5264.421039015055
sI161
F4305.196969404817
sI162
F3863.8264773115516
sI163
F4517.230821631849
sI164
F6196.51439063251
sI165
F4258.564105503261
sI166
F5987.179517060518
sI167
F4089.122432425618
sI168
F4634.285788603127
sI169
F4499.625162780285
sI170
F4234.393057838082
sI171
F4516.064943909645
sI172
F4312.5550267621875
sI173
F4731.236063659191
sI174
F4358.120035097003
sI175
F4367.185948513448
sI176
F4395.568653225899
sI177
F5683.531005077064
sI178
F4490.965610615909
sI179
F4385.162796474993
sI180
F4153.846096634865
sI181
F4446.709620304406
sI182
F4836.12992939353
sI183
F4554.509343586862
sI184
F4140.80149821192
sI185
F4506.626689091325
sI186
F4861.062755733728
sI187
F4123.962920255959
sI188
F3873.7987470403314
sI189
F4279.624575465918
sI190
F4281.575914777815
sI191
F4336.220856122673
sI192
F4423.899287499487
sI193
F4305.692394383252
sI194
F4312.861531741917
sI195
F4431.376459687948
sI196
F4487.0004790872335
sI197
F4875.048601672053
sI198
F4992.153213098645
sI199
F4272.9894487559795
sI200
F3995.1905262321234
sI201
F3962.8058547005057
sI202
F4044.4881627187133
sI203
F4057.4372864216566
sI204
F4642.596252322197
sI205
F4140.992719262838
sI206
F4395.3084749653935
sI207
F4084.908156849444
sI208
F4519.126998975873
sI209
F4408.337243288755
sI210
F4188.039862908423
sI211
F4653.400110125542
sI212
F4285.913444288075
sI213
F4420.458368010819
sI214
F4559.692526400089
sI215
F4334.421583600342
sI216
F4087.1229593381286
sI217
F5259.267473429441
sI218
F4160.004304677248
sI219
F4104.554938979447
sI220
F4314.114476770163
sI221
F4418.196917146444
sI222
F4349.841777049005
sI223
F3953.2087725549936
sI224
F4391.795285016298
sI225
F3986.599019229412
sI226
F4537.130130268633
sI227
F4266.662734724581
sI228
F3701.5057162195444
sI229
F4090.663614012301
sI230
F4389.247035011649
sI231
F4183.4708555191755
sI232
F4413.717793017626
sI233
F4294.897955603898
sI234
F4299.784601546824
sI235
F5081.453638784587
sI236
F4573.909246914089
sI237
F4508.565529733896
sI238
F4171.132269643247
sI239
F3875.3898250088096
sI240
F3984.249576829374
sI241
F4824.396417021751
sI242
F4585.381057083607
sI243
F4250.07633022964
sI244
F4112.019834391773
sI245
F3901.480537094176
sI246
F4415.391358040273
sI247
F3941.4030905887485
sI248
F4312.289209581912
sI249
F4206.289749994874
sI250
F4363.99142575264
sI251
F4430.435430198908
sI252
F4159.432755634189
sI253
F4435.839000470936
sI254
F4255.879350557923
sI255
F4364.615166172385
sI256
F3970.8774127215147
sI257
F4160.666184566915
sI258
F4083.845343634486
sI259
F3842.9352469667792
sI260
F4341.195663765073
sI261
F4002.2112162560225
sI262
F4273.988157063723
sI263
F4593.387435756624
sI264
F4052.7951017916203
sI265
F4450.437810815871
sI266
F3828.464544169605
sI267
F3607.0140711143613
sI268
F4951.768500953913
sI269
F4689.32933600992
sI270
F4383.020298972726
sI271
F4507.667376510799
sI272
F4362.714570954442
sI273
F3943.6486833915114
sI274
F4072.7721543088555
sI275
F3813.68995821476
sI276
F4079.0844024792314
sI277
F4013.8643142953515
sI278
F4121.601295478642
sI279
F4178.713414177299
sI280
F4226.927083723247
sI281
F4126.600339949131
sI282
F4014.681070841849
sI283
F4658.8836277499795
sI284
F4248.956393480301
sI285
F4506.870103865862
sI286
F4325.160267822444
sI287
F4174.280354604125
sI288
F4127.056602686644
sI289
F4169.583368875086
sI290
F4228.157249830663
sI291
F4834.4966156333685
sI292
F5188.446402430534
sI293
F4361.853778742254
sI294
F4280.345680229366
sI295
F4018.096517212689
sI296
F4595.932891272008
sI297
F4270.849385902286
sI298
F4210.63468786329
sI299
F4539.754117839038
sI300
F4542.962848231196
sI301
F4351.591581389308
sI302
F4232.0853937491775
sI303
F4683.5862799957395
sI304
F4373.176496304572
sI305
F4347.2454134225845
sI306
F4433.741960354149
sI307
F4281.913718424737
sI308
F4685.569690950215
sI309
F3513.7637091353536
sI310
F4386.197294451296
sI311
F4007.712138965726
sI312
F4131.102383382618
sI313
F4859.577445834875
sI314
F3620.427626848221
sI315
F4077.146149277687
sI316
F4068.767615288496
sI317
F4086.5063884928823
sI318
F4088.337648153305
sI319
F4058.188355356455
sI320
F4064.655992373824
sI321
F4091.9373890534043
sI322
F4035.024069197476
sI323
F4106.636014826596
sI324
F4094.290334008634
sI325
F4056.0701572075486
sI326
F4080.58032848686
sI327
F4075.5004824772477
sI328
F4113.972144849598
sI329
F4050.207255266607
sI330
F4049.9749365076423
sI331
F4098.549488425255
sI332
F4077.725771896541
sI333
F4076.9268360361457
sI334
F4120.930964723229
sI335
F4055.6212715879083
sI336
F4065.9988084360957
sI337
F4097.524937167764
sI338
F4074.439563535154
sI339
F4082.8564230054617
sI340
F4070.424370780587
sI341
F4094.3506345674396
sI342
F4033.036261498928
sI343
F4138.923629008234
sI344
F4082.304393351078
sI345
F4073.8363407179713
sI346
F4086.4904536902905
sI347
F4071.561900705099
sI348
F4097.515333093703
sI349
F4034.453899845481
sI350
F4080.772958613932
sI351
F4068.8547830805182
sI352
F4075.4874231666327
sI353
F4079.3191927969456
sI354
F4040.234373778105
sI355
F4149.2056264951825
sI356
F4084.8952242955565
sI357
F4070.071524903178
sI358
F4087.852756664157
sI359
F4095.4787313118577
sI360
F4071.255012497306
sI361
F4083.1064473837614
sI362
F4070.80285846442
sI363
F4083.5901351347566
sI364
F4077.8977001085877
sI365
F4075.6754850000143
sI366
F4077.146149277687
sI367
F4112.38280159235
sI368
F4046.997863344848
sI369
F3394.689946703613
sI370
F3396.4483961761
sI371
F3392.9273876473308
sI372
F3394.8205877244473
sI373
F3394.550255328417
sI374
F3395.442736044526
sI375
F3393.957327835262
sI376
F3408.784052670002
sI377
F3380.772039502859
sI378
F3395.5356217846274
sI379
F3393.937878161669
sI380
F3394.3407034650445
sI381
F3395.327367387712
sI382
F3369.6580133512616
sI383
F3421.4100609645247
sI384
F3393.68797044456
sI385
F3397.187101587653
sI386
F3432.8823123276234
sI387
F3360.0106871426105
sI388
F3422.622276134789
sI389
F3367.064148403704
sI390
F4681.701123982668
sI391
F4503.5649613291025
sI392
F4434.184113815427
sI393
F4462.082134306431
sI394
F4408.501714341342
sI395
F4451.630200281739
sI396
F4416.5046736449
sI397
F4443.318420641124
sI398
F4424.599361106753
sI399
F4626.36521986872
sI400
F4262.476409360766
sI401
F4452.906889542937
sI402
F4410.209472388029
sI403
F4442.8438148498535
sI404
F4429.277061589062
sI405
F4519.89714961499
sI406
F4310.670686364174
sI407
F4412.547232329845
sI408
F4455.79619961977
sI409
F4443.192237466574
sI410
F4426.582001954317
sI411
F4341.865067131817
sI412
F4478.924199618399
sI413
F4356.011758111417
sI414
F4508.013108097017
sI415
F4302.019479446113
sI416
F4620.264742091298
sI417
F4410.23413130641
sI418
F4485.032688163221
sI419
F4413.842574618757
sI420
F4454.082755535841
sI421
F4464.384994909167
sI422
F4412.156221926212
sI423
F4380.646792128682
sI424
F4486.654089666903
sI425
F4557.2937067225575
sI426
F4400.686547920108
sI427
F4462.786892607808
sI428
F4410.791923291981
sI429
F4424.391145385802
sI430
F4441.616109587252
sI431
F4367.249896854162
sI432
F4492.655045054853
sI433
F4476.954661428928
sI434
F4402.488408662379
sI435
F4461.048845171928
sI436
F4406.6683060228825
sI437
F4404.442821510136
sI438
F4467.491354845464
sI439
F4401.92987177521
sI440
F4553.6787528172135
sI441
F4428.619576148689
sI442
F4436.334818504751
sI443
F4451.582089297473
sI444
F4358.016048647463
sI445
F4434.125192135572
sI-1
F299336.0
s.