(dp0
I0
F458828.31631469727
sI1
F466380.7348937988
sI2
F444413.2625427246
sI3
F458828.31631469727
sI4
F466380.7348937988
sI5
F444413.2625427246
sI6
F458828.31631469727
sI7
F466380.7348937988
sI8
F444413.2625427246
sI9
F458828.31631469727
sI10
F447090.65536499023
sI11
F447784.05169677734
sI12
F477490.32901000977
sI13
F453748.374420166
sI14
F450845.892578125
sI15
F456368.1976623535
sI16
F466407.6389160156
sI17
F449220.956451416
sI18
F453488.41302490234
sI19
F444481.13861083984
sI20
F484098.74447631836
sI21
F449005.8793334961
sI22
F448573.4238586426
sI23
F548424.1963500977
sI24
F446497.1037902832
sI25
F450121.6623535156
sI26
F446963.1297302246
sI27
F544744.60546875
sI28
F452780.1295776367
sI29
F413703.52421569824
sI30
F451987.4509277344
sI31
F455291.7997741699
sI32
F441566.14904785156
sI33
F455139.63220214844
sI34
F525709.4850158691
sI35
F499500.64794921875
sI36
F449992.8903198242
sI37
F495028.5898742676
sI38
F455154.36016845703
sI39
F441506.4493408203
sI40
F457059.29721069336
sI41
F464191.01303100586
sI42
F447619.68353271484
sI43
F452308.5893859863
sI44
F452492.6537780762
sI45
F437324.29571533203
sI46
F454053.1569213867
sI47
F456514.40811157227
sI48
F441736.2582702637
sI49
F457863.59005737305
sI50
F452875.3530883789
sI51
F452458.6723937988
sI52
F449450.4419555664
sI53
F457058.51232910156
sI54
F447950.0284729004
sI55
F490529.8069152832
sI56
F433969.9772338867
sI57
F447840.734375
sI58
F461287.499420166
sI59
F527354.8796386719
sI60
F444277.2517089844
sI61
F447233.009765625
sI62
F455568.298248291
sI63
F597292.4860229492
sI64
F448492.5432739258
sI65
F573965.5587158203
sI66
F457114.87048339844
sI67
F510696.4592895508
sI68
F458459.23178100586
sI69
F464397.5303955078
sI70
F452628.3087463379
sI71
F445172.4069824219
sI72
F456344.00885009766
sI73
F449883.6069030762
sI74
F458724.3762207031
sI75
F451304.8312072754
sI76
F508961.9430847168
sI77
F482225.7359313965
sI78
F446910.01651000977
sI79
F461569.3338623047
sI80
F454744.7053527832
sI81
F453781.5426940918
sI82
F453778.7051086426
sI83
F485237.5255432129
sI84
F443129.73681640625
sI85
F460357.7805786133
sI86
F398671.71629333496
sI87
F456310.8734741211
sI88
F442763.4514465332
sI89
F450885.73208618164
sI90
F452163.86865234375
sI91
F461673.3410949707
sI92
F463783.26837158203
sI93
F447462.05560302734
sI94
F448355.5188598633
sI95
F468431.5375671387
sI96
F444307.47186279297
sI97
F385458.19760131836
sI98
F455249.16015625
sI99
F411006.4975280762
sI100
F450978.1015625
sI101
F447567.06494140625
sI102
F444919.6408996582
sI103
F446297.49212646484
sI104
F456573.520111084
sI105
F445480.1534729004
sI106
F450851.2109069824
sI107
F433243.5418395996
sI108
F444475.1337585449
sI109
F448308.0335083008
sI110
F499621.29776000977
sI111
F487067.2413635254
sI112
F488047.9067993164
sI113
F519948.9089050293
sI114
F494091.1047363281
sI115
F491366.9355163574
sI116
F497433.8850097656
sI117
F507599.72229003906
sI118
F489619.15032958984
sI119
F493682.3324584961
sI120
F484739.19189453125
sI121
F527634.8812866211
sI122
F489236.49032592773
sI123
F488429.76348876953
sI124
F597660.1156311035
sI125
F486102.8020019531
sI126
F490545.1147155762
sI127
F486389.8272705078
sI128
F593408.6123962402
sI129
F492797.25619506836
sI130
F449523.7135925293
sI131
F492008.5982055664
sI132
F495912.38998413086
sI133
F480789.82403564453
sI134
F496087.96395874023
sI135
F572509.5108337402
sI136
F544180.8814086914
sI137
F489974.896484375
sI138
F539124.6781616211
sI139
F495712.0733642578
sI140
F480585.8147277832
sI141
F497565.86337280273
sI142
F505190.1150817871
sI143
F487181.0890197754
sI144
F493024.3784484863
sI145
F492925.9255371094
sI146
F476175.15478515625
sI147
F494830.4382324219
sI148
F497547.5424499512
sI149
F480641.81228637695
sI150
F498644.68908691406
sI151
F493468.79275512695
sI152
F492594.84561157227
sI153
F489324.78729248047
sI154
F497810.80865478516
sI155
F487367.89318847656
sI156
F534082.6761169434
sI157
F472514.1087036133
sI158
F487438.02337646484
sI159
F502956.2481689453
sI160
F574335.477355957
sI161
F483623.6941833496
sI162
F487202.5165710449
sI163
F496089.4191894531
sI164
F650841.6614379883
sI165
F488306.0455932617
sI166
F625323.6603088379
sI167
F498146.5732421875
sI168
F556712.7622680664
sI169
F499401.5966796875
sI170
F505904.13302612305
sI171
F492715.82821655273
sI172
F484418.9771118164
sI173
F496678.97787475586
sI174
F489792.6896972656
sI175
F499638.4013977051
sI176
F491397.3901672363
sI177
F553405.7082519531
sI178
F525332.3491516113
sI179
F486346.4726257324
sI180
F502955.17791748047
sI181
F495092.67572021484
sI182
F493690.2192077637
sI183
F494032.4442138672
sI184
F529176.6066894531
sI185
F482367.177734375
sI186
F501089.2571411133
sI187
F433276.01666259766
sI188
F497395.9098815918
sI189
F481887.7611999512
sI190
F491017.2334289551
sI191
F492182.2621459961
sI192
F502893.414642334
sI193
F505290.41763305664
sI194
F487144.27896118164
sI195
F487939.65478515625
sI196
F510208.4760131836
sI197
F483157.42291259766
sI198
F417680.6470336914
sI199
F495962.05990600586
sI200
F446515.0171813965
sI201
F491400.9808654785
sI202
F487447.1328125
sI203
F484585.03399658203
sI204
F485591.85009765625
sI205
F497582.21298217773
sI206
F484832.07208251953
sI207
F491145.40270996094
sI208
F471031.7850036621
sI209
F483707.20611572266
sI210
F488195.01583862305
sI211
F499886.92517089844
sI212
F448383.082611084
sI213
F442714.67303466797
sI214
F450631.015625
sI215
F443244.9746398926
sI216
F447072.279876709
sI217
F473086.88470458984
sI218
F441063.43978881836
sI219
F443520.5760498047
sI220
F453014.57040405273
sI221
F452733.9105529785
sI222
F434514.1940307617
sI223
F436730.28942871094
sI224
F448010.8668823242
sI225
F457343.09631347656
sI226
F447575.9337158203
sI227
F442678.9995422363
sI228
F441536.4569091797
sI229
F439497.50103759766
sI230
F452775.64080810547
sI231
F455310.4194641113
sI232
F478825.63146972656
sI233
F438586.08502197266
sI234
F449149.3914794922
sI235
F471743.37310791016
sI236
F429780.31115722656
sI237
F451533.32315063477
sI238
F447901.96560668945
sI239
F457537.12576293945
sI240
F447642.73373413086
sI241
F459518.0053100586
sI242
F457897.8206176758
sI243
F444062.29235839844
sI244
F433460.7183074951
sI245
F447831.486907959
sI246
F441505.38220214844
sI247
F440259.0425720215
sI248
F448415.45083618164
sI249
F455811.2933654785
sI250
F442204.6717224121
sI251
F458590.55014038086
sI252
F456430.2144470215
sI253
F442442.2035217285
sI254
F445965.37701416016
sI255
F441524.4301452637
sI256
F446717.07763671875
sI257
F448836.28186035156
sI258
F458565.1761779785
sI259
F440826.5385131836
sI260
F443226.1715698242
sI261
F448592.96353149414
sI262
F446208.45501708984
sI263
F456681.37225341797
sI264
F450696.30755615234
sI265
F438668.1304016113
sI266
F439105.8020324707
sI267
F449611.45263671875
sI268
F459223.37829589844
sI269
F436273.8268432617
sI270
F463306.0776062012
sI271
F441776.5180358887
sI272
F467692.5842590332
sI273
F441083.66958618164
sI274
F458617.03115844727
sI275
F428007.58770751953
sI276
F442813.69873046875
sI277
F450491.85653686523
sI278
F443118.6916809082
sI279
F443949.61639404297
sI280
F439691.61904907227
sI281
F460716.90994262695
sI282
F448684.55068969727
sI283
F441336.33364868164
sI284
F452582.9044189453
sI285
F448457.11599731445
sI286
F448838.7102355957
sI287
F449025.5946960449
sI288
F448815.76333618164
sI289
F445624.9153442383
sI290
F441972.8600769043
sI291
F460465.6875305176
sI292
F473121.15936279297
sI293
F451708.9179992676
sI294
F450916.6929626465
sI295
F426749.66889953613
sI296
F480322.1210632324
sI297
F435671.81674194336
sI298
F462812.8479614258
sI299
F449627.005279541
sI300
F445011.6458129883
sI301
F436950.98753356934
sI302
F454451.3620605469
sI303
F448634.41796875
sI304
F428129.6788635254
sI305
F409974.1024169922
sI306
F455396.0140686035
sI307
F467990.26443481445
sI308
F449970.1215209961
sI309
F444441.5390930176
sI310
F447622.6129760742
sI311
F451849.0112915039
sI312
F441868.28924560547
sI313
F464207.9596557617
sI314
F466522.2426452637
sI315
F461932.3843688965
sI316
F462103.4528808594
sI317
F461734.50283813477
sI318
F460516.1466369629
sI319
F464355.20416259766
sI320
F461351.4255371094
sI321
F462622.7073059082
sI322
F461789.16244506836
sI323
F462013.13064575195
sI324
F460843.58029174805
sI325
F463272.8139038086
sI326
F459055.6391296387
sI327
F463424.85079956055
sI328
F463500.16510009766
sI329
F460732.0438232422
sI330
F460454.67666625977
sI331
F463036.12243652344
sI332
F461196.7995300293
sI333
F462266.09243774414
sI334
F466200.7438964844
sI335
F459854.36096191406
sI336
F461492.238861084
sI337
F462721.81048583984
sI338
F461905.06716918945
sI339
F462003.6885986328
sI340
F461808.48318481445
sI341
F462012.8437194824
sI342
F463025.618560791
sI343
F460337.60778808594
sI344
F463476.4821166992
sI345
F460954.6085510254
sI346
F462427.5678100586
sI347
F461634.0612487793
sI348
F463488.24111938477
sI349
F458543.45446777344
sI350
F459861.45642089844
sI351
F461922.484954834
sI352
F462647.0656738281
sI353
F461100.8415527344
sI354
F461519.604095459
sI355
F461871.69149780273
sI356
F462587.2212219238
sI357
F461309.88262939453
sI358
F463393.19415283203
sI359
F461663.9306945801
sI360
F461770.43630981445
sI361
F462086.41958618164
sI362
F461655.4900817871
sI363
F462208.1819152832
sI364
F461723.2796020508
sI365
F462102.36865234375
sI366
F461932.3843688965
sI367
F463950.09295654297
sI368
F459866.1697692871
sI369
F468222.6954345703
sI370
F468502.96493530273
sI371
F467942.0085449219
sI372
F467072.94805908203
sI373
F469374.27520751953
sI374
F468198.96533203125
sI375
F468250.1059875488
sI376
F469641.4749145508
sI377
F466812.5331726074
sI378
F469171.89334106445
sI379
F467270.17611694336
sI380
F469629.64056396484
sI381
F466740.0872192383
sI382
F467950.3446960449
sI383
F468403.3671569824
sI384
F466571.0473937988
sI385
F469342.8701171875
sI386
F469326.96127319336
sI387
F465808.9873046875
sI388
F469472.2170715332
sI389
F467317.5622558594
sI390
F429528.863861084
sI391
F432102.19580078125
sI392
F423542.90187072754
sI393
F423118.1371459961
sI394
F423929.08099365234
sI395
F423852.0219421387
sI396
F423214.9497375488
sI397
F432017.02380371094
sI398
F416209.2337799072
sI399
F423429.2425842285
sI400
F423249.4182281494
sI401
F424962.7442626953
sI402
F421664.5785064697
sI403
F423340.0760345459
sI404
F423656.552154541
sI405
F420247.61657714844
sI406
F428527.3625488281
sI407
F422245.73623657227
sI408
F424678.2826843262
sI409
F417059.8084716797
sI410
F427309.3312988281
sI411
F422304.23150634766
sI412
F424168.4949951172
sI413
F426572.6931152344
sI414
F421039.32206726074
sI415
F429853.60900878906
sI416
F415285.0344543457
sI417
F423582.5019226074
sI418
F423380.9036254883
sI419
F424294.6927642822
sI420
F422820.2581176758
sI421
F421266.2962036133
sI422
F425242.0876312256
sI423
F426187.4736175537
sI424
F421047.5274963379
sI425
F421725.23210144043
sI426
F422654.81620788574
sI427
F423967.28134155273
sI428
F424742.2265472412
sI429
F424001.05322265625
sI430
F423099.0457611084
sI431
F425484.29151916504
sI432
F422779.8905029297
sI433
F424640.26832580566
sI434
F422507.5270843506
sI435
F423846.36975097656
sI436
F423222.7451019287
sI437
F422534.49365234375
sI438
F425283.13360595703
sI439
F425458.97956848145
sI440
F417057.1955871582
sI441
F423574.6114501953
sI442
F421824.28091430664
sI443
F424842.8513946533
sI444
F417198.2374725342
sI445
F426587.87786865234
sI-1
F297657.0
s.